(dp1
S'output'
p2
S"<type 'exceptions.AttributeError'> 'NoneType' object has no attribute 'email'"
p3
sS'layer'
p4
S'/Users/sepehrtaheri/PycharmProjects/listEmAlpha/web2py/applications/listemAlpha/models/db_vancouver.py'
p5
sS'code'
p6
S"import datetime\n\ndb.define_table('vancouver',\n                Field('location_vancouver_id'),  #, db.location_vancouver),\n                Field('category_id'),  #, db.category, notnull=True),\n                Field('user_id', db.auth_user, default=auth.user_id, writable=False, readable=False),\n                Field('adTitle', 'string', notnull=True),\n                Field('email',default=auth.user.email, requires=IS_EMAIL(), notnull=True),\n                Field('phone_number',default=auth.user.phone, requires=IS_MATCH('[\\d\\-\\(\\) ]+'), notnull=True),\n                Field('adDesc', 'text', notnull=True),\n                Field('adPrice', 'integer', notnull=True),\n                Field('isAdValid', 'integer', requires=IS_INT_IN_RANGE(0, 2), default=1, writable=False, readable=False),\n                Field('dateCreated', 'datetime', notnull=True, writable=False, readable=False, default=datetime.datetime.now()),\n                Field('dateEnded', 'datetime'), migrate=True)\n"
p7
sS'snapshot'
p8
(dp9
S'exception'
p10
(dp11
S'__hash__'
p12
S"<method-wrapper '__hash__' of exceptions.AttributeError object>"
p13
sS'__setattr__'
p14
S"<method-wrapper '__setattr__' of exceptions.AttributeError object>"
p15
sS'__reduce_ex__'
p16
S'<built-in method __reduce_ex__ of exceptions.AttributeError object>'
p17
sS'__getslice__'
p18
S"<method-wrapper '__getslice__' of exceptions.AttributeError object>"
p19
sS'__getitem__'
p20
S"<method-wrapper '__getitem__' of exceptions.AttributeError object>"
p21
sS'__setstate__'
p22
S'<built-in method __setstate__ of exceptions.AttributeError object>'
p23
sS'args'
p24
S'("\'NoneType\' object has no attribute \'email\'",)'
p25
sS'__reduce__'
p26
S'<built-in method __reduce__ of exceptions.AttributeError object>'
p27
sS'__str__'
p28
S"<method-wrapper '__str__' of exceptions.AttributeError object>"
p29
sS'__format__'
p30
S'<built-in method __format__ of exceptions.AttributeError object>'
p31
sS'__getattribute__'
p32
S"<method-wrapper '__getattribute__' of exceptions.AttributeError object>"
p33
sS'__class__'
p34
S"<type 'exceptions.AttributeError'>"
p35
sS'__unicode__'
p36
S'<built-in method __unicode__ of exceptions.AttributeError object>'
p37
sS'__delattr__'
p38
S"<method-wrapper '__delattr__' of exceptions.AttributeError object>"
p39
sS'__subclasshook__'
p40
S'<built-in method __subclasshook__ of type object>'
p41
sS'__repr__'
p42
S"<method-wrapper '__repr__' of exceptions.AttributeError object>"
p43
sS'__dict__'
p44
S'{}'
p45
sS'__sizeof__'
p46
S'<built-in method __sizeof__ of exceptions.AttributeError object>'
p47
sS'__doc__'
p48
S"'Attribute not found.'"
p49
sS'__init__'
p50
S"<method-wrapper '__init__' of exceptions.AttributeError object>"
p51
sS'__new__'
p52
S'<built-in method __new__ of type object>'
p53
ssS'evalue'
p54
S"'NoneType' object has no attribute 'email'"
p55
sS'request'
p56
cgluon.html
XML_unpickle
p57
(S's~P\x00\x00<div><table><tr><td style="font-weight:bold;vertical-align:top;">ajax</td><td style="vertical-align:top;">:</td><td><div>False</div></td></tr><tr><td style="font-weight:bold;vertical-align:top;">application</td><td style="vertical-align:top;">:</td><td><div>listemAlpha</div></td></tr><tr><td style="font-weight:bold;vertical-align:top;">args</td><td style="vertical-align:top;">:</td><td><div><table></table></div></td></tr><tr><td style="font-weight:bold;vertical-align:top;">cid</td><td style="vertical-align:top;">:</td><td><div>None</div></td></tr><tr><td style="font-weight:bold;vertical-align:top;">client</td><td style="vertical-align:top;">:</td><td><div>127.0.0.1</div></td></tr><tr><td style="font-weight:bold;vertical-align:top;">controller</td><td style="vertical-align:top;">:</td><td><div>default</div></td></tr><tr><td style="font-weight:bold;vertical-align:top;">cookies</td><td style="vertical-align:top;">:</td><td><div><table><tr><td style="font-weight:bold;vertical-align:top;">session_id_welcome</td><td style="vertical-align:top;">:</td><td><div>127.0.0.1-cb3fc63b-40fd-47d8-85d0-e06b1241fa91<table><tr><td style="font-weight:bold;vertical-align:top;">comment</td><td style="vertical-align:top;">:</td><td><div></div></td></tr><tr><td style="font-weight:bold;vertical-align:top;">domain</td><td style="vertical-align:top;">:</td><td><div></div></td></tr><tr><td style="font-weight:bold;vertical-align:top;">expires</td><td style="vertical-align:top;">:</td><td><div></div></td></tr><tr><td style="font-weight:bold;vertical-align:top;">httponly</td><td style="vertical-align:top;">:</td><td><div></div></td></tr><tr><td style="font-weight:bold;vertical-align:top;">max-age</td><td style="vertical-align:top;">:</td><td><div></div></td></tr><tr><td style="font-weight:bold;vertical-align:top;">path</td><td style="vertical-align:top;">:</td><td><div></div></td></tr><tr><td style="font-weight:bold;vertical-align:top;">secure</td><td style="vertical-align:top;">:</td><td><div></div></td></tr><tr><td style="font-weight:bold;vertical-align:top;">version</td><td style="vertical-align:top;">:</td><td><div></div></td></tr></table></div></td></tr></table></div></td></tr><tr><td style="font-weight:bold;vertical-align:top;">env</td><td style="vertical-align:top;">:</td><td><div><table><tr><td style="font-weight:bold;vertical-align:top;">HTTP_ACCEPT</td><td style="vertical-align:top;">:</td><td><div>text/html,application/xhtml+xml,application/xml;q=0.9,image/webp,*/*;q=0.8</div></td></tr><tr><td style="font-weight:bold;vertical-align:top;">HTTP_ACCEPT_ENCODING</td><td style="vertical-align:top;">:</td><td><div>gzip,deflate,sdch</div></td></tr><tr><td style="font-weight:bold;vertical-align:top;">HTTP_ACCEPT_LANGUAGE</td><td style="vertical-align:top;">:</td><td><div>en-US,en;q=0.8</div></td></tr><tr><td style="font-weight:bold;vertical-align:top;">HTTP_CONNECTION</td><td style="vertical-align:top;">:</td><td><div>keep-alive</div></td></tr><tr><td style="font-weight:bold;vertical-align:top;">HTTP_COOKIE</td><td style="vertical-align:top;">:</td><td><div>_ga=GA1.1.573380557.1400820513; session_id_welcome=127.0.0.1-cb3fc63b-40fd-47d8-85d0-e06b1241fa91</div></td></tr><tr><td style="font-weight:bold;vertical-align:top;">HTTP_HOST</td><td style="vertical-align:top;">:</td><td><div>127.0.0.1:8000</div></td></tr><tr><td style="font-weight:bold;vertical-align:top;">HTTP_USER_AGENT</td><td style="vertical-align:top;">:</td><td><div>Mozilla/5.0 (Macintosh; Intel Mac OS X 10_9_1) AppleWebKit/537.36 (KHTML, like Gecko) Chrome/36.0.1985.125 Safari/537.36</div></td></tr><tr><td style="font-weight:bold;vertical-align:top;">PATH_INFO</td><td style="vertical-align:top;">:</td><td><div>/listemAlpha/default</div></td></tr><tr><td style="font-weight:bold;vertical-align:top;">QUERY_STRING</td><td style="vertical-align:top;">:</td><td><div></div></td></tr><tr><td style="font-weight:bold;vertical-align:top;">REMOTE_ADDR</td><td style="vertical-align:top;">:</td><td><div>127.0.0.1</div></td></tr><tr><td style="font-weight:bold;vertical-align:top;">REMOTE_PORT</td><td style="vertical-align:top;">:</td><td><div>55838</div></td></tr><tr><td style="font-weight:bold;vertical-align:top;">REQUEST_METHOD</td><td style="vertical-align:top;">:</td><td><div>GET</div></td></tr><tr><td style="font-weight:bold;vertical-align:top;">SCRIPT_NAME</td><td style="vertical-align:top;">:</td><td><div></div></td></tr><tr><td style="font-weight:bold;vertical-align:top;">SERVER_NAME</td><td style="vertical-align:top;">:</td><td><div>Sepehrs-MacBook-Air.local</div></td></tr><tr><td style="font-weight:bold;vertical-align:top;">SERVER_PORT</td><td style="vertical-align:top;">:</td><td><div>8000</div></td></tr><tr><td style="font-weight:bold;vertical-align:top;">SERVER_PROTOCOL</td><td style="vertical-align:top;">:</td><td><div>HTTP/1.1</div></td></tr><tr><td style="font-weight:bold;vertical-align:top;">SERVER_SOFTWARE</td><td style="vertical-align:top;">:</td><td><div>Rocket 1.2.6</div></td></tr><tr><td style="font-weight:bold;vertical-align:top;">app_folders</td><td style="vertical-align:top;">:</td><td><div>set([&#x27;/Users/sepehrtaheri/PycharmProjects/listEmAlpha/web2py/applications/listemAlpha/&#x27;, &#x27;/Users/sepehrtaheri/PycharmProjects/listEmAlpha/web2py/applications/welcome/&#x27;])</div></td></tr><tr><td style="font-weight:bold;vertical-align:top;">applications_parent</td><td style="vertical-align:top;">:</td><td><div>/Users/sepehrtaheri/PycharmProjects/listEmAlpha/web2py</div></td></tr><tr><td style="font-weight:bold;vertical-align:top;">cmd_args</td><td style="vertical-align:top;">:</td><td><div><table></table></div></td></tr><tr><td style="font-weight:bold;vertical-align:top;">cmd_options</td><td style="vertical-align:top;">:</td><td><div>&lt;Values at 0x1013adfc8: {&#x27;verbose&#x27;: False, &#x27;ip&#x27;: &#x27;127.0.0.1&#x27;, &#x27;debuglevel&#x27;: 30, &#x27;with_scheduler&#x27;: False, &#x27;ips&#x27;: [&#x27;192.168.1.79&#x27;, &#x27;fe80::60c:ceff:fed3:73ae%en0&#x27;], &#x27;shutdown_timeout&#x27;: 5, &#x27;taskbar&#x27;: False, &#x27;with_coverage&#x27;: False, &#x27;port&#x27;: 8000, &#x27;maxthreads&#x27;: None, &#x27;softcron&#x27;: False, &#x27;server_name&#x27;: &#x27;Sepehrs-MacBook-Air.local&#x27;, &#x27;bpython&#x27;: False, &#x27;nogui&#x27;: False, &#x27;pid_filename&#x27;: &#x27;httpserver.pid&#x27;, &#x27;extcron&#x27;: False, &#x27;runcron&#x27;: False, &#x27;run_system_tests&#x27;: False, &#x27;test&#x27;: None, &#x27;folder&#x27;: &#x27;/Users/sepehrtaheri/PycharmProjects/listEmAlpha/web2py&#x27;, &#x27;config&#x27;: &#x27;&#x27;, &#x27;minthreads&#x27;: None, &#x27;shell&#x27;: None, &#x27;run&#x27;: &#x27;&#x27;, &#x27;log_filename&#x27;: &#x27;httpserver.log&#x27;, &#x27;profiler_dir&#x27;: None, &#x27;args&#x27;: [&#x27;&#x27;], &#x27;socket_timeout&#x27;: 5, &#x27;ssl_ca_certificate&#x27;: None, &#x27;scheduler&#x27;: None, &#x27;interfaces&#x27;: None, &#x27;ssl_private_key&#x27;: &#x27;&#x27;, &#x27;scheduler_groups&#x27;: None, &#x27;password&#x27;: &#x27;&lt;ask&gt;&#x27;, &#x27;request_queue_size&#x27;: 5, &#x27;ssl_certificate&#x27;: &#x27;&#x27;, &#x27;cronjob&#x27;: False, &#x27;numthreads&#x27;: None, &#x27;quiet&#x27;: False, &#x27;import_models&#x27;: False, &#x27;timeout&#x27;: 10, &#x27;plain&#x27;: False, &#x27;nobanner&#x27;: False}&gt;</div></td></tr><tr><td style="font-weight:bold;vertical-align:top;">db_sessions</td><td style="vertical-align:top;">:</td><td><div>set([])</div></td></tr><tr><td style="font-weight:bold;vertical-align:top;">debugging</td><td style="vertical-align:top;">:</td><td><div>False</div></td></tr><tr><td style="font-weight:bold;vertical-align:top;">gluon_parent</td><td style="vertical-align:top;">:</td><td><div>/Users/sepehrtaheri/PycharmProjects/listEmAlpha/web2py</div></td></tr><tr><td style="font-weight:bold;vertical-align:top;">http_accept</td><td style="vertical-align:top;">:</td><td><div>text/html,application/xhtml+xml,application/xml;q=0.9,image/webp,*/*;q=0.8</div></td></tr><tr><td style="font-weight:bold;vertical-align:top;">http_accept_encoding</td><td style="vertical-align:top;">:</td><td><div>gzip,deflate,sdch</div></td></tr><tr><td style="font-weight:bold;vertical-align:top;">http_accept_language</td><td style="vertical-align:top;">:</td><td><div>en-US,en;q=0.8</div></td></tr><tr><td style="font-weight:bold;vertical-align:top;">http_connection</td><td style="vertical-align:top;">:</td><td><div>keep-alive</div></td></tr><tr><td style="font-weight:bold;vertical-align:top;">http_cookie</td><td style="vertical-align:top;">:</td><td><div>_ga=GA1.1.573380557.1400820513; session_id_welcome=127.0.0.1-cb3fc63b-40fd-47d8-85d0-e06b1241fa91</div></td></tr><tr><td style="font-weight:bold;vertical-align:top;">http_host</td><td style="vertical-align:top;">:</td><td><div>127.0.0.1:8000</div></td></tr><tr><td style="font-weight:bold;vertical-align:top;">http_user_agent</td><td style="vertical-align:top;">:</td><td><div>Mozilla/5.0 (Macintosh; Intel Mac OS X 10_9_1) AppleWebKit/537.36 (KHTML, like Gecko) Chrome/36.0.1985.125 Safari/537.36</div></td></tr><tr><td style="font-weight:bold;vertical-align:top;">is_jython</td><td style="vertical-align:top;">:</td><td><div>False</div></td></tr><tr><td style="font-weight:bold;vertical-align:top;">is_pypy</td><td style="vertical-align:top;">:</td><td><div>False</div></td></tr><tr><td style="font-weight:bold;vertical-align:top;">is_source</td><td style="vertical-align:top;">:</td><td><div>True</div></td></tr><tr><td style="font-weight:bold;vertical-align:top;">local_hosts</td><td style="vertical-align:top;">:</td><td><div><table><tr><td><div>192.168.1.79</div></td></tr><tr><td><div>::ffff:127.0.0.1</div></td></tr><tr><td><div>fe80::60c:ceff:fed3:73ae%en0</div></td></tr><tr><td><div>::1</div></td></tr><tr><td><div>Sepehrs-MacBook-Air.local</div></td></tr><tr><td><div>127.0.0.1</div></td></tr></table></div></td></tr><tr><td style="font-weight:bold;vertical-align:top;">path_info</td><td style="vertical-align:top;">:</td><td><div>/listemAlpha/default</div></td></tr><tr><td style="font-weight:bold;vertical-align:top;">query_string</td><td style="vertical-align:top;">:</td><td><div></div></td></tr><tr><td style="font-weight:bold;vertical-align:top;">remote_addr</td><td style="vertical-align:top;">:</td><td><div>127.0.0.1</div></td></tr><tr><td style="font-weight:bold;vertical-align:top;">remote_port</td><td style="vertical-align:top;">:</td><td><div>55838</div></td></tr><tr><td style="font-weight:bold;vertical-align:top;">request_method</td><td style="vertical-align:top;">:</td><td><div>GET</div></td></tr><tr><td style="font-weight:bold;vertical-align:top;">request_uri</td><td style="vertical-align:top;">:</td><td><div>/listemAlpha/default</div></td></tr><tr><td style="font-weight:bold;vertical-align:top;">script_name</td><td style="vertical-align:top;">:</td><td><div></div></td></tr><tr><td style="font-weight:bold;vertical-align:top;">server_name</td><td style="vertical-align:top;">:</td><td><div>Sepehrs-MacBook-Air.local</div></td></tr><tr><td style="font-weight:bold;vertical-align:top;">server_port</td><td style="vertical-align:top;">:</td><td><div>8000</div></td></tr><tr><td style="font-weight:bold;vertical-align:top;">server_protocol</td><td style="vertical-align:top;">:</td><td><div>HTTP/1.1</div></td></tr><tr><td style="font-weight:bold;vertical-align:top;">server_software</td><td style="vertical-align:top;">:</td><td><div>Rocket 1.2.6</div></td></tr><tr><td style="font-weight:bold;vertical-align:top;">web2py_path</td><td style="vertical-align:top;">:</td><td><div>/Users/sepehrtaheri/PycharmProjects/listEmAlpha/web2py</div></td></tr><tr><td style="font-weight:bold;vertical-align:top;">web2py_version</td><td style="vertical-align:top;">:</td><td><div>2.9.5-stable+timestamp.2014.03.16.02.35.39</div></td></tr><tr><td style="font-weight:bold;vertical-align:top;">wsgi.errors</td><td style="vertical-align:top;">:</td><td><div>&lt;open file &#x27;&lt;stderr&gt;&#x27;, mode &#x27;w&#x27; at 0x1004e11e0&gt;</div></td></tr><tr><td style="font-weight:bold;vertical-align:top;">wsgi.file_wrapper</td><td style="vertical-align:top;">:</td><td><div>&lt;class wsgiref.util.FileWrapper at 0x1010deef0&gt;</div></td></tr><tr><td style="font-weight:bold;vertical-align:top;">wsgi.input</td><td style="vertical-align:top;">:</td><td><div>&lt;socket._fileobject object at 0x1068728d0&gt;</div></td></tr><tr><td style="font-weight:bold;vertical-align:top;">wsgi.multiprocess</td><td style="vertical-align:top;">:</td><td><div>False</div></td></tr><tr><td style="font-weight:bold;vertical-align:top;">wsgi.multithread</td><td style="vertical-align:top;">:</td><td><div>True</div></td></tr><tr><td style="font-weight:bold;vertical-align:top;">wsgi.run_once</td><td style="vertical-align:top;">:</td><td><div>False</div></td></tr><tr><td style="font-weight:bold;vertical-align:top;">wsgi.url_scheme</td><td style="vertical-align:top;">:</td><td><div>http</div></td></tr><tr><td style="font-weight:bold;vertical-align:top;">wsgi.version</td><td style="vertical-align:top;">:</td><td><div><table><tr><td><div>1</div></td></tr><tr><td><div>0</div></td></tr></table></div></td></tr><tr><td style="font-weight:bold;vertical-align:top;">wsgi_errors</td><td style="vertical-align:top;">:</td><td><div>&lt;open file &#x27;&lt;stderr&gt;&#x27;, mode &#x27;w&#x27; at 0x1004e11e0&gt;</div></td></tr><tr><td style="font-weight:bold;vertical-align:top;">wsgi_file_wrapper</td><td style="vertical-align:top;">:</td><td><div>&lt;class wsgiref.util.FileWrapper at 0x1010deef0&gt;</div></td></tr><tr><td style="font-weight:bold;vertical-align:top;">wsgi_input</td><td style="vertical-align:top;">:</td><td><div>&lt;socket._fileobject object at 0x1068728d0&gt;</div></td></tr><tr><td style="font-weight:bold;vertical-align:top;">wsgi_multiprocess</td><td style="vertical-align:top;">:</td><td><div>False</div></td></tr><tr><td style="font-weight:bold;vertical-align:top;">wsgi_multithread</td><td style="vertical-align:top;">:</td><td><div>True</div></td></tr><tr><td style="font-weight:bold;vertical-align:top;">wsgi_run_once</td><td style="vertical-align:top;">:</td><td><div>False</div></td></tr><tr><td style="font-weight:bold;vertical-align:top;">wsgi_url_scheme</td><td style="vertical-align:top;">:</td><td><div>http</div></td></tr><tr><td style="font-weight:bold;vertical-align:top;">wsgi_version</td><td style="vertical-align:top;">:</td><td><div><table><tr><td><div>1</div></td></tr><tr><td><div>0</div></td></tr></table></div></td></tr></table></div></td></tr><tr><td style="font-weight:bold;vertical-align:top;">extension</td><td style="vertical-align:top;">:</td><td><div>html</div></td></tr><tr><td style="font-weight:bold;vertical-align:top;">folder</td><td style="vertical-align:top;">:</td><td><div>/Users/sepehrtaheri/PycharmProjects/listEmAlpha/web2py/applications/listemAlpha/</div></td></tr><tr><td style="font-weight:bold;vertical-align:top;">function</td><td style="vertical-align:top;">:</td><td><div>index</div></td></tr><tr><td style="font-weight:bold;vertical-align:top;">global_settings</td><td style="vertical-align:top;">:</td><td><div><table><tr><td style="font-weight:bold;vertical-align:top;">app_folders</td><td style="vertical-align:top;">:</td><td><div>set([&#x27;/Users/sepehrtaheri/PycharmProjects/listEmAlpha/web2py/applications/listemAlpha/&#x27;, &#x27;/Users/sepehrtaheri/PycharmProjects/listEmAlpha/web2py/applications/welcome/&#x27;])</div></td></tr><tr><td style="font-weight:bold;vertical-align:top;">applications_parent</td><td style="vertical-align:top;">:</td><td><div>/Users/sepehrtaheri/PycharmProjects/listEmAlpha/web2py</div></td></tr><tr><td style="font-weight:bold;vertical-align:top;">cmd_args</td><td style="vertical-align:top;">:</td><td><div><table></table></div></td></tr><tr><td style="font-weight:bold;vertical-align:top;">cmd_options</td><td style="vertical-align:top;">:</td><td><div>&lt;Values at 0x1013adfc8: {&#x27;verbose&#x27;: False, &#x27;ip&#x27;: &#x27;127.0.0.1&#x27;, &#x27;debuglevel&#x27;: 30, &#x27;with_scheduler&#x27;: False, &#x27;ips&#x27;: [&#x27;192.168.1.79&#x27;, &#x27;fe80::60c:ceff:fed3:73ae%en0&#x27;], &#x27;shutdown_timeout&#x27;: 5, &#x27;taskbar&#x27;: False, &#x27;with_coverage&#x27;: False, &#x27;port&#x27;: 8000, &#x27;maxthreads&#x27;: None, &#x27;softcron&#x27;: False, &#x27;server_name&#x27;: &#x27;Sepehrs-MacBook-Air.local&#x27;, &#x27;bpython&#x27;: False, &#x27;nogui&#x27;: False, &#x27;pid_filename&#x27;: &#x27;httpserver.pid&#x27;, &#x27;extcron&#x27;: False, &#x27;runcron&#x27;: False, &#x27;run_system_tests&#x27;: False, &#x27;test&#x27;: None, &#x27;folder&#x27;: &#x27;/Users/sepehrtaheri/PycharmProjects/listEmAlpha/web2py&#x27;, &#x27;config&#x27;: &#x27;&#x27;, &#x27;minthreads&#x27;: None, &#x27;shell&#x27;: None, &#x27;run&#x27;: &#x27;&#x27;, &#x27;log_filename&#x27;: &#x27;httpserver.log&#x27;, &#x27;profiler_dir&#x27;: None, &#x27;args&#x27;: [&#x27;&#x27;], &#x27;socket_timeout&#x27;: 5, &#x27;ssl_ca_certificate&#x27;: None, &#x27;scheduler&#x27;: None, &#x27;interfaces&#x27;: None, &#x27;ssl_private_key&#x27;: &#x27;&#x27;, &#x27;scheduler_groups&#x27;: None, &#x27;password&#x27;: &#x27;&lt;ask&gt;&#x27;, &#x27;request_queue_size&#x27;: 5, &#x27;ssl_certificate&#x27;: &#x27;&#x27;, &#x27;cronjob&#x27;: False, &#x27;numthreads&#x27;: None, &#x27;quiet&#x27;: False, &#x27;import_models&#x27;: False, &#x27;timeout&#x27;: 10, &#x27;plain&#x27;: False, &#x27;nobanner&#x27;: False}&gt;</div></td></tr><tr><td style="font-weight:bold;vertical-align:top;">db_sessions</td><td style="vertical-align:top;">:</td><td><div>set([])</div></td></tr><tr><td style="font-weight:bold;vertical-align:top;">debugging</td><td style="vertical-align:top;">:</td><td><div>False</div></td></tr><tr><td style="font-weight:bold;vertical-align:top;">gluon_parent</td><td style="vertical-align:top;">:</td><td><div>/Users/sepehrtaheri/PycharmProjects/listEmAlpha/web2py</div></td></tr><tr><td style="font-weight:bold;vertical-align:top;">is_jython</td><td style="vertical-align:top;">:</td><td><div>False</div></td></tr><tr><td style="font-weight:bold;vertical-align:top;">is_pypy</td><td style="vertical-align:top;">:</td><td><div>False</div></td></tr><tr><td style="font-weight:bold;vertical-align:top;">is_source</td><td style="vertical-align:top;">:</td><td><div>True</div></td></tr><tr><td style="font-weight:bold;vertical-align:top;">local_hosts</td><td style="vertical-align:top;">:</td><td><div><table><tr><td><div>192.168.1.79</div></td></tr><tr><td><div>::ffff:127.0.0.1</div></td></tr><tr><td><div>fe80::60c:ceff:fed3:73ae%en0</div></td></tr><tr><td><div>::1</div></td></tr><tr><td><div>Sepehrs-MacBook-Air.local</div></td></tr><tr><td><div>127.0.0.1</div></td></tr></table></div></td></tr><tr><td style="font-weight:bold;vertical-align:top;">web2py_version</td><td style="vertical-align:top;">:</td><td><div>2.9.5-stable+timestamp.2014.03.16.02.35.39</div></td></tr></table></div></td></tr><tr><td style="font-weight:bold;vertical-align:top;">is_https</td><td style="vertical-align:top;">:</td><td><div>False</div></td></tr><tr><td style="font-weight:bold;vertical-align:top;">is_local</td><td style="vertical-align:top;">:</td><td><div>True</div></td></tr><tr><td style="font-weight:bold;vertical-align:top;">is_restful</td><td style="vertical-align:top;">:</td><td><div>False</div></td></tr><tr><td style="font-weight:bold;vertical-align:top;">now</td><td style="vertical-align:top;">:</td><td><div>datetime.datetime(2014, 8, 6, 22, 53, 28, 566503)</div></td></tr><tr><td style="font-weight:bold;vertical-align:top;">raw_args</td><td style="vertical-align:top;">:</td><td><div></div></td></tr><tr><td style="font-weight:bold;vertical-align:top;">raw_extension</td><td style="vertical-align:top;">:</td><td><div>None</div></td></tr><tr><td style="font-weight:bold;vertical-align:top;">url</td><td style="vertical-align:top;">:</td><td><div>/listemAlpha/default</div></td></tr><tr><td style="font-weight:bold;vertical-align:top;">utcnow</td><td style="vertical-align:top;">:</td><td><div>datetime.datetime(2014, 8, 7, 5, 53, 28, 566522)</div></td></tr><tr><td style="font-weight:bold;vertical-align:top;">uuid</td><td style="vertical-align:top;">:</td><td><div>listemAlpha/127.0.0.1.2014-08-06.22-53-28.d809da44-dea5-485d-8fbf-421c7103c61f</div></td></tr><tr><td style="font-weight:bold;vertical-align:top;">wsgi</td><td style="vertical-align:top;">:</td><td><div>&lt;gluon.main.LazyWSGI object at 0x106961e50&gt;</div></td></tr></table></div>'
tRp58
sS'frames'
p59
(lp60
(dp61
S'file'
p62
S'/Users/sepehrtaheri/PycharmProjects/listEmAlpha/web2py/gluon/restricted.py'
p63
sS'dump'
p64
(dp65
S'environment'
p66
S"{'A': <class 'gluon.html.A'>, 'ANY_OF': <class 'gluon.validators.ANY_OF'>, 'Auth': <class 'gluon.tools.Auth'>, 'B': <class 'gluon.html.B'>, 'BEAUTIFY': <class 'gluon.html.BEAUTIFY'>, 'BODY': <class 'gluon.html.BODY'>, 'BR': <class 'gluon.html.BR'>, 'BUTTON': <class 'gluon.html.BUTTON'>, 'CAT': <class 'gluon.html.CAT'>, 'CENTER': <class 'gluon.html.CENTER'>, ...}"
p67
sS'ccode'
p68
S'<code object <module> at 0x1013c53b0, file "/Use...ions/listemAlpha/models/db_vancouver.py", line 1>'
p69
ssS'lnum'
p70
I220
sS'lines'
p71
(dp72
I224
S'        # do not encapsulate (obfuscate) the original RestrictedError'
p73
sI215
S'    try:'
p74
sI216
S'        if isinstance(code, types.CodeType):'
p75
sI217
S'            ccode = code'
p76
sI218
S'        else:'
p77
sI219
S'            ccode = compile2(code, layer)'
p78
sI220
S'        exec ccode in environment'
p79
sI221
S'    except HTTP:'
p80
sI222
S'        raise'
p81
sI223
S'    except RestrictedError:'
p82
ssS'call'
p83
S'(code="import datetime\\n\\ndb.define_table(\'vancouver\',\\n  ...   Field(\'dateEnded\', \'datetime\'), migrate=True)\\n", environment={\'A\': <class \'gluon.html.A\'>, \'ANY_OF\': <class \'gluon.validators.ANY_OF\'>, \'Auth\': <class \'gluon.tools.Auth\'>, \'B\': <class \'gluon.html.B\'>, \'BEAUTIFY\': <class \'gluon.html.BEAUTIFY\'>, \'BODY\': <class \'gluon.html.BODY\'>, \'BR\': <class \'gluon.html.BR\'>, \'BUTTON\': <class \'gluon.html.BUTTON\'>, \'CAT\': <class \'gluon.html.CAT\'>, \'CENTER\': <class \'gluon.html.CENTER\'>, ...}, layer=\'/Users/sepehrtaheri/PycharmProjects/listEmAlpha/...y/applications/listemAlpha/models/db_vancouver.py\')'
p84
sS'func'
p85
S'restricted'
p86
sa(dp87
g62
S'/Users/sepehrtaheri/PycharmProjects/listEmAlpha/web2py/applications/listemAlpha/models/db_vancouver.py'
p88
sg64
(dp89
S'IS_EMAIL'
p90
S"<class 'gluon.validators.IS_EMAIL'>"
p91
sS'default'
p92
S'undefined'
p93
sS'builtinTrue'
p94
S'True'
p95
sS'auth'
p96
S'<gluon.tools.Auth object>'
p97
sS'Field'
p98
S"<class 'gluon.dal.Field'>"
p99
sS'auth.user'
p100
S'None'
p101
sS'notnull'
p102
g93
sS'auth.user.email'
p103
g93
sS'requires'
p104
g93
ssg70
I8
sg71
(dp105
I3
S"db.define_table('vancouver',"
p106
sI4
S"                Field('location_vancouver_id'),  #, db.location_vancouver),"
p107
sI5
S"                Field('category_id'),  #, db.category, notnull=True),"
p108
sI6
S"                Field('user_id', db.auth_user, default=auth.user_id, writable=False, readable=False),"
p109
sI7
S"                Field('adTitle', 'string', notnull=True),"
p110
sI8
S"                Field('email',default=auth.user.email, requires=IS_EMAIL(), notnull=True),"
p111
sI9
S"                Field('phone_number',default=auth.user.phone, requires=IS_MATCH('[\\d\\-\\(\\) ]+'), notnull=True),"
p112
sI10
S"                Field('adDesc', 'text', notnull=True),"
p113
sI11
S"                Field('adPrice', 'integer', notnull=True),"
p114
sI12
S"                Field('isAdValid', 'integer', requires=IS_INT_IN_RANGE(0, 2), default=1, writable=False, readable=False),"
p115
ssg83
S'()'
p116
sg85
S'<module>'
p117
sasS'pyver'
p118
S'Python 2.7.5: /System/Library/Frameworks/Python.framework/Versions/2.7/Resources/Python.app/Contents/MacOS/Python (prefix: /System/Library/Frameworks/Python.framework/Versions/2.7)'
p119
sS'session'
p120
g57
(S's\x1a\x00\x00\x00<div><table></table></div>'
tRp121
sS'etype'
p122
S"<type 'exceptions.AttributeError'>"
p123
sS'date'
p124
S'Wed Aug  6 22:53:30 2014'
p125
sS'response'
p126
g57
(S's\xd1\x15\x00\x00<div><table><tr><td style="font-weight:bold;vertical-align:top;">body</td><td style="vertical-align:top;">:</td><td><div>&lt;cStringIO.StringO object at 0x10695fae8&gt;</div></td></tr><tr><td style="font-weight:bold;vertical-align:top;">cookies</td><td style="vertical-align:top;">:</td><td><div><table><tr><td style="font-weight:bold;vertical-align:top;">session_id_listemalpha</td><td style="vertical-align:top;">:</td><td><div>127.0.0.1-83ffdf43-a145-48d5-a181-c9a12d520852<table><tr><td style="font-weight:bold;vertical-align:top;">comment</td><td style="vertical-align:top;">:</td><td><div></div></td></tr><tr><td style="font-weight:bold;vertical-align:top;">domain</td><td style="vertical-align:top;">:</td><td><div></div></td></tr><tr><td style="font-weight:bold;vertical-align:top;">expires</td><td style="vertical-align:top;">:</td><td><div></div></td></tr><tr><td style="font-weight:bold;vertical-align:top;">httponly</td><td style="vertical-align:top;">:</td><td><div></div></td></tr><tr><td style="font-weight:bold;vertical-align:top;">max-age</td><td style="vertical-align:top;">:</td><td><div></div></td></tr><tr><td style="font-weight:bold;vertical-align:top;">path</td><td style="vertical-align:top;">:</td><td><div>/</div></td></tr><tr><td style="font-weight:bold;vertical-align:top;">secure</td><td style="vertical-align:top;">:</td><td><div></div></td></tr><tr><td style="font-weight:bold;vertical-align:top;">version</td><td style="vertical-align:top;">:</td><td><div></div></td></tr></table></div></td></tr></table></div></td></tr><tr><td style="font-weight:bold;vertical-align:top;">delimiters</td><td style="vertical-align:top;">:</td><td><div><table><tr><td><div>{{</div></td></tr><tr><td><div>}}</div></td></tr></table></div></td></tr><tr><td style="font-weight:bold;vertical-align:top;">files</td><td style="vertical-align:top;">:</td><td><div><table></table></div></td></tr><tr><td style="font-weight:bold;vertical-align:top;">flash</td><td style="vertical-align:top;">:</td><td><div></div></td></tr><tr><td style="font-weight:bold;vertical-align:top;">generic_patterns</td><td style="vertical-align:top;">:</td><td><div><table><tr><td><div>*</div></td></tr></table></div></td></tr><tr><td style="font-weight:bold;vertical-align:top;">headers</td><td style="vertical-align:top;">:</td><td><div><table><tr><td style="font-weight:bold;vertical-align:top;">X-Powered-By</td><td style="vertical-align:top;">:</td><td><div>web2py</div></td></tr></table></div></td></tr><tr><td style="font-weight:bold;vertical-align:top;">menu</td><td style="vertical-align:top;">:</td><td><div><table></table></div></td></tr><tr><td style="font-weight:bold;vertical-align:top;">meta</td><td style="vertical-align:top;">:</td><td><div><table></table></div></td></tr><tr><td style="font-weight:bold;vertical-align:top;">models_to_run</td><td style="vertical-align:top;">:</td><td><div><table><tr><td><div>^\\w+\\.py$</div></td></tr><tr><td><div>^default/\\w+\\.py$</div></td></tr><tr><td><div>^default/index/\\w+\\.py$</div></td></tr></table></div></td></tr><tr><td style="font-weight:bold;vertical-align:top;">postprocessing</td><td style="vertical-align:top;">:</td><td><div><table></table></div></td></tr><tr><td style="font-weight:bold;vertical-align:top;">session_client</td><td style="vertical-align:top;">:</td><td><div>127.0.0.1</div></td></tr><tr><td style="font-weight:bold;vertical-align:top;">session_cookie_compression_level</td><td style="vertical-align:top;">:</td><td><div>None</div></td></tr><tr><td style="font-weight:bold;vertical-align:top;">session_cookie_expires</td><td style="vertical-align:top;">:</td><td><div>None</div></td></tr><tr><td style="font-weight:bold;vertical-align:top;">session_cookie_key</td><td style="vertical-align:top;">:</td><td><div>None</div></td></tr><tr><td style="font-weight:bold;vertical-align:top;">session_data_name</td><td style="vertical-align:top;">:</td><td><div>session_data_listemalpha</div></td></tr><tr><td style="font-weight:bold;vertical-align:top;">session_file</td><td style="vertical-align:top;">:</td><td><div>None</div></td></tr><tr><td style="font-weight:bold;vertical-align:top;">session_filename</td><td style="vertical-align:top;">:</td><td><div>/Users/sepehrtaheri/PycharmProjects/listEmAlpha/web2py/applications/listemAlpha/sessions/127.0.0.1-83ffdf43-a145-48d5-a181-c9a12d520852</div></td></tr><tr><td style="font-weight:bold;vertical-align:top;">session_hash</td><td style="vertical-align:top;">:</td><td><div>106f4c22ca06cc343e42b73a0d8492f6</div></td></tr><tr><td style="font-weight:bold;vertical-align:top;">session_id</td><td style="vertical-align:top;">:</td><td><div>127.0.0.1-83ffdf43-a145-48d5-a181-c9a12d520852</div></td></tr><tr><td style="font-weight:bold;vertical-align:top;">session_id_name</td><td style="vertical-align:top;">:</td><td><div>session_id_listemalpha</div></td></tr><tr><td style="font-weight:bold;vertical-align:top;">session_masterapp</td><td style="vertical-align:top;">:</td><td><div>listemAlpha</div></td></tr><tr><td style="font-weight:bold;vertical-align:top;">session_new</td><td style="vertical-align:top;">:</td><td><div>True</div></td></tr><tr><td style="font-weight:bold;vertical-align:top;">session_storage_type</td><td style="vertical-align:top;">:</td><td><div>file</div></td></tr><tr><td style="font-weight:bold;vertical-align:top;">status</td><td style="vertical-align:top;">:</td><td><div>200</div></td></tr><tr><td style="font-weight:bold;vertical-align:top;">view</td><td style="vertical-align:top;">:</td><td><div>default/index.html</div></td></tr></table></div>'
tRp127
sS'locals'
p128
(dp129
S'Service'
p130
S"<class 'gluon.tools.Service'>"
p131
sS'OBJECT'
p132
S"<class 'gluon.html.OBJECT'>"
p133
sS'SQLDB'
p134
S"<class 'gluon.dal.DAL'>"
p135
sg120
S'<Storage {}>'
p136
sS'LINK'
p137
S"<class 'gluon.html.LINK'>"
p138
sS'BR'
p139
S"<class 'gluon.html.BR'>"
p140
sS'local_import'
p141
S'<function <lambda>>'
p142
sS'OPTGROUP'
p143
S"<class 'gluon.html.OPTGROUP'>"
p144
sS'LI'
p145
S"<class 'gluon.html.LI'>"
p146
sS'PRE'
p147
S"<class 'gluon.html.PRE'>"
p148
sS'IS_INT_IN_RANGE'
p149
S"<class 'gluon.validators.IS_INT_IN_RANGE'>"
p150
sS'IS_LOWER'
p151
S"<class 'gluon.validators.IS_LOWER'>"
p152
sS'IS_STRONG'
p153
S"<class 'gluon.validators.IS_STRONG'>"
p154
sS'cache'
p155
S'<gluon.cache.Cache object>'
p156
sS'IS_IN_DB'
p157
S"<class 'gluon.validators.IS_IN_DB'>"
p158
sS'TAG'
p159
S'<gluon.html.__TAG__ object>'
p160
sS'SQLField'
p161
S"<class 'gluon.dal.Field'>"
p162
sS'mail'
p163
S'<gluon.tools.Mail object>'
p164
sS'BODY'
p165
S"<class 'gluon.html.BODY'>"
p166
sS'IS_DATE_IN_RANGE'
p167
S"<class 'gluon.validators.IS_DATE_IN_RANGE'>"
p168
sS'TH'
p169
S"<class 'gluon.html.TH'>"
p170
sS'URL'
p171
S'<function URL>'
p172
sS'__file__'
p173
S"'/Users/sepehrtaheri/PycharmProjects/listEmAlpha/...y/applications/listemAlpha/models/db_vancouver.py'"
p174
sS'db'
p175
S'<DAL uri="mysql:******@db4free.net:3306/vancouver">'
p176
sS'auth'
p177
S'<gluon.tools.Auth object>'
p178
sS'P'
S"<class 'gluon.html.P'>"
p179
sS'TFOOT'
p180
S"<class 'gluon.html.TFOOT'>"
p181
sS'XHTML'
p182
S"<class 'gluon.html.XHTML'>"
p183
sS'datetime'
p184
S"<module 'datetime' from '/System/Library/Framewo...sions/2.7/lib/python2.7/lib-dynload/datetime.so'>"
p185
sS'ON'
p186
g95
sS'OL'
p187
S"<class 'gluon.html.OL'>"
p188
sS'TEXTAREA'
p189
S"<class 'gluon.html.TEXTAREA'>"
p190
sS'MENU'
p191
S"<class 'gluon.html.MENU'>"
p192
sS'LOAD'
p193
S'<function LOAD>'
p194
sS'CODE'
p195
S"<class 'gluon.html.CODE'>"
p196
sS'HTTP'
p197
S"<class 'gluon.http.HTTP'>"
p198
sS'HR'
p199
S"<class 'gluon.html.HR'>"
p200
sS'IS_DATETIME'
p201
S"<class 'gluon.validators.IS_DATETIME'>"
p202
sS'HEAD'
p203
S"<class 'gluon.html.HEAD'>"
p204
sS'LABEL'
p205
S"<class 'gluon.html.LABEL'>"
p206
sS'CLEANUP'
p207
S"<class 'gluon.validators.CLEANUP'>"
p208
sS'plugins'
p209
S'<gluon.tools.PluginManager object>'
p210
sS'SELECT'
p211
S"<class 'gluon.html.SELECT'>"
p212
sS'use_janrain'
p213
S'<function use_janrain>'
p214
sS'CENTER'
p215
S"<class 'gluon.html.CENTER'>"
p216
sS'prettydate'
p217
S'<function prettydate>'
p218
sS'Crud'
p219
S"<class 'gluon.tools.Crud'>"
p220
sS'Auth'
p221
S"<class 'gluon.tools.Auth'>"
p222
sS'__builtins__'
p223
S"{'ArithmeticError': <type 'exceptions.ArithmeticError'>, 'AssertionError': <type 'exceptions.AssertionError'>, 'AttributeError': <type 'exceptions.AttributeError'>, 'BaseException': <type 'exceptions.BaseException'>, 'BufferError': <type 'exceptions.BufferError'>, 'BytesWarning': <type 'exceptions.BytesWarning'>, 'DeprecationWarning': <type 'exceptions.DeprecationWarning'>, 'EOFError': <type 'exceptions.EOFError'>, 'Ellipsis': Ellipsis, 'EnvironmentError': <type 'exceptions.EnvironmentError'>, ...}"
p224
sS'HTML'
p225
S"<class 'gluon.html.HTML'>"
p226
sS'SQLFORM'
p227
S"<class 'gluon.sqlhtml.SQLFORM'>"
p228
sS'EM'
p229
S"<class 'gluon.html.EM'>"
p230
sS'redirect'
p231
S'<function redirect>'
p232
sS'FIELDSET'
p233
S"<class 'gluon.html.FIELDSET'>"
p234
sS'IS_EQUAL_TO'
p235
S"<class 'gluon.validators.IS_EQUAL_TO'>"
p236
sS'embed64'
p237
S'<function embed64>'
p238
sS'IS_LIST_OF'
p239
S"<class 'gluon.validators.IS_LIST_OF'>"
p240
sS'__name__'
p241
S"'__restricted__'"
p242
sS'EMBED'
p243
S"<class 'gluon.html.EMBED'>"
p244
sS'FORM'
p245
S"<class 'gluon.html.FORM'>"
p246
sS'H2'
p247
S"<class 'gluon.html.H2'>"
p248
sS'H3'
p249
S"<class 'gluon.html.H3'>"
p250
sS'BUTTON'
p251
S"<class 'gluon.html.BUTTON'>"
p252
sS'H1'
p253
S"<class 'gluon.html.H1'>"
p254
sS'H6'
p255
S"<class 'gluon.html.H6'>"
p256
sS'H4'
p257
S"<class 'gluon.html.H4'>"
p258
sS'H5'
p259
S"<class 'gluon.html.H5'>"
p260
sS'UL'
p261
S"<class 'gluon.html.UL'>"
p262
sS'IS_UPPER'
p263
S"<class 'gluon.validators.IS_UPPER'>"
p264
sS'xmlescape'
p265
S'<function xmlescape>'
p266
sS'IS_TIME'
p267
S"<class 'gluon.validators.IS_TIME'>"
p268
sS'OPTION'
p269
S"<class 'gluon.html.OPTION'>"
p270
sS'TITLE'
p271
S"<class 'gluon.html.TITLE'>"
p272
sS'CRYPT'
p273
S"<class 'gluon.validators.CRYPT'>"
p274
sS'IS_EMPTY_OR'
p275
S"<class 'gluon.validators.IS_EMPTY_OR'>"
p276
sS'MARKMIN'
p277
S"<class 'gluon.html.MARKMIN'>"
p278
sS'INPUT'
p279
S"<class 'gluon.html.INPUT'>"
p280
sS'STRONG'
p281
S"<class 'gluon.html.STRONG'>"
p282
sS'COL'
p283
S"<class 'gluon.html.COL'>"
p284
sS'service'
p285
S'<gluon.tools.Service object>'
p286
sS'SCRIPT'
p287
S"<class 'gluon.html.SCRIPT'>"
p288
sS'TABLE'
p289
S"<class 'gluon.html.TABLE'>"
p290
sS'IS_IPV4'
p291
S"<class 'gluon.validators.IS_IPV4'>"
p292
sS'IS_LENGTH'
p293
S"<class 'gluon.validators.IS_LENGTH'>"
p294
sS'IS_IPV6'
p295
S"<class 'gluon.validators.IS_IPV6'>"
p296
sS'XML'
p297
S"<class 'gluon.html.XML'>"
p298
sS'B'
S"<class 'gluon.html.B'>"
p299
sS'IMG'
p300
S"<class 'gluon.html.IMG'>"
p301
sS'SQLTABLE'
p302
S"<class 'gluon.sqlhtml.SQLTABLE'>"
p303
sS'IS_MATCH'
p304
S"<class 'gluon.validators.IS_MATCH'>"
p305
sS'IS_ALPHANUMERIC'
p306
S"<class 'gluon.validators.IS_ALPHANUMERIC'>"
p307
sS'SPAN'
p308
S"<class 'gluon.html.SPAN'>"
p309
sS'IS_JSON'
p310
S"<class 'gluon.validators.IS_JSON'>"
p311
sS'IS_IPADDRESS'
p312
S"<class 'gluon.validators.IS_IPADDRESS'>"
p313
sS'IS_SLUG'
p314
S"<class 'gluon.validators.IS_SLUG'>"
p315
sS'BEAUTIFY'
p316
S"<class 'gluon.html.BEAUTIFY'>"
p317
sS'META'
p318
S"<class 'gluon.html.META'>"
p319
sS'IS_DATE'
p320
S"<class 'gluon.validators.IS_DATE'>"
p321
sS'IS_EMAIL'
p322
S"<class 'gluon.validators.IS_EMAIL'>"
p323
sS'IS_NOT_EMPTY'
p324
S"<class 'gluon.validators.IS_NOT_EMPTY'>"
p325
sS'IS_FLOAT_IN_RANGE'
p326
S"<class 'gluon.validators.IS_FLOAT_IN_RANGE'>"
p327
sS'TBODY'
p328
S"<class 'gluon.html.TBODY'>"
p329
sS'CAT'
p330
S"<class 'gluon.html.CAT'>"
p331
sS'Field'
p332
S"<class 'gluon.dal.Field'>"
p333
sS'IS_LIST_OF_EMAILS'
p334
S"<class 'gluon.validators.IS_LIST_OF_EMAILS'>"
p335
sS'DIV'
p336
S"<class 'gluon.html.DIV'>"
p337
sS'LEGEND'
p338
S"<class 'gluon.html.LEGEND'>"
p339
sS'COLGROUP'
p340
S"<class 'gluon.html.COLGROUP'>"
p341
sS'DAL'
p342
S"<class 'gluon.dal.DAL'>"
p343
sS'TT'
p344
S"<class 'gluon.html.TT'>"
p345
sS'TR'
p346
S"<class 'gluon.html.TR'>"
p347
sS'__package__'
p348
S'None'
p349
sS'IFRAME'
p350
S"<class 'gluon.html.IFRAME'>"
p351
sS'TD'
p352
S"<class 'gluon.html.TD'>"
p353
sS'PluginManager'
p354
S"<class 'gluon.tools.PluginManager'>"
p355
sS'IS_URL'
p356
S"<class 'gluon.validators.IS_URL'>"
p357
sS'A'
S"<class 'gluon.html.A'>"
p358
sS'STYLE'
p359
S"<class 'gluon.html.STYLE'>"
p360
sS'IS_DATETIME_IN_RANGE'
p361
S"<class 'gluon.validators.IS_DATETIME_IN_RANGE'>"
p362
sS'IS_IMAGE'
p363
S"<class 'gluon.validators.IS_IMAGE'>"
p364
sS'I'
S"<class 'gluon.html.I'>"
p365
sS'crud'
p366
S'<gluon.tools.Crud object>'
p367
sS'IS_NOT_IN_DB'
p368
S"<class 'gluon.validators.IS_NOT_IN_DB'>"
p369
sg126
S"<Storage {'body': <cStringIO.StringO object at 0...> at 0x106970ed8>, 'view': 'default/index.html'}>"
p370
sS'THEAD'
p371
S"<class 'gluon.html.THEAD'>"
p372
sS'ANY_OF'
p373
S"<class 'gluon.validators.ANY_OF'>"
p374
sS'IS_NULL_OR'
p375
S"<class 'gluon.validators.IS_EMPTY_OR'>"
p376
sg56
S"<Storage {'_vars': None, 'function': 'index', 'c...s/listEmAlpha/web2py/applications/listemAlpha/'}>"
p377
sS'IS_EXPR'
p378
S"<class 'gluon.validators.IS_EXPR'>"
p379
sS'IS_IN_SET'
p380
S"<class 'gluon.validators.IS_IN_SET'>"
p381
sS'IS_UPLOAD_FILENAME'
p382
S"<class 'gluon.validators.IS_UPLOAD_FILENAME'>"
p383
sS'IS_DECIMAL_IN_RANGE'
p384
S"<class 'gluon.validators.IS_DECIMAL_IN_RANGE'>"
p385
sS'T'
S'<gluon.languages.translator object>'
p386
sssS'traceback'
p387
S'Traceback (most recent call last):\n  File "/Users/sepehrtaheri/PycharmProjects/listEmAlpha/web2py/gluon/restricted.py", line 220, in restricted\n    exec ccode in environment\n  File "/Users/sepehrtaheri/PycharmProjects/listEmAlpha/web2py/applications/listemAlpha/models/db_vancouver.py", line 8, in <module>\n    Field(\'email\',default=auth.user.email, requires=IS_EMAIL(), notnull=True),\nAttributeError: \'NoneType\' object has no attribute \'email\'\n'
p388
s.