(dp1
S'output'
p2
S"<type 'exceptions.NameError'> name 'auth' is not defined"
p3
sS'layer'
p4
S'/Users/sepehrtaheri/PycharmProjects/listEmAlpha/web2py/applications/listemAlpha/models/db.py'
p5
sS'code'
p6
S"# -*- coding: utf-8 -*-\n\n# bootstrap3 theme for web2py\nfrom gluon import current\ncurrent.auth = auth\nimport bootstrap3 as bs3\n\n\n# ########################################################################\n# # This scaffolding model makes your app work on Google App Engine too\n## File is released under public domain and you can use without limitations\n#########################################################################\n\n## if SSL/HTTPS is properly configured and you want all HTTP requests to\n## be redirected to HTTPS, uncomment the line below:\n# request.requires_https()\n\nif not request.env.web2py_runtime_gae:\n    ## if NOT running on Google App Engine use SQLite or other DB\n    db = DAL('mysql://supsep:sepehr@db4free.net:3306/vancouver')\nelse:\n    ## connect to Google BigTable (optional 'google:datastore://namespace')\n    db = DAL('google:datastore')\n    ## store sessions and tickets there\n    session.connect(request, response, db=db)\n    ## or store session in Memcache, Redis, etc.\n    ## from gluon.contrib.memdb import MEMDB\n    ## from google.appengine.api.memcache import Client\n    ## session.connect(request, response, db = MEMDB(Client()))\n\n## by default give a view/generic.extension to all actions from localhost\n## none otherwise. a pattern can be 'controller/function.extension'\nresponse.generic_patterns = ['*'] if request.is_local else []\n## (optional) optimize handling of static files\n# response.optimize_css = 'concat,minify,inline'\n# response.optimize_js = 'concat,minify,inline'\n## (optional) static assets folder versioning\n# response.static_version = '0.0.0'\n#########################################################################\n## Here is sample code if you need for\n## - email capabilities\n## - authentication (registration, login, logout, ... )\n## - authorization (role based authorization)\n## - services (xml, csv, json, xmlrpc, jsonrpc, amf, rss)\n## - old style crud actions\n## (more options discussed in gluon/tools.py)\n#########################################################################\n\nfrom gluon.tools import Auth, Crud, Service, PluginManager, prettydate\n\nauth = Auth(db)\ncrud, service, plugins = Crud(db), Service(), PluginManager()\n\nauth.settings.extra_fields['auth_user'] = [\n    Field('city'),\n    Field('zip'),\n    Field('phone', requires=IS_MATCH('[\\d\\-\\(\\) ]+')),\n    Field('score', 'double',  writable=False, readable=False)]\n\n## create all tables needed by auth if not custom tables\nauth.define_tables(username=False, signature=False)\n\n## configure email\nmail = auth.settings.mailer\nmail.settings.server = 'logging' or 'smtp.gmail.com:587'\nmail.settings.sender = 'you@gmail.com'\nmail.settings.login = 'username:password'\n\n## configure auth policy\nauth.settings.registration_requires_verification = False\nauth.settings.registration_requires_approval = False\nauth.settings.reset_password_requires_verification = True\n\n#auth.settings.registration_requires_verification = True\n#auth.settings.registration_requires_approval = False\n#auth.settings.reset_password_requires_verification = True\n#auth.messages.verify_email = 'Click on the link http://' +     request.env.http_host +     URL(r=request,c='default',f='user',args=['verify_email']) +     '/%(key)s to verify your email'\n#auth.messages.reset_password = 'Click on the link http://' +     request.env.http_host +     URL(r=request,c='default',f='user',args=['reset_password']) +     '/%(key)s to reset your password'\n\n## if you need to use OpenID, Facebook, MySpace, Twitter, Linkedin, etc.\n## register with janrain.com, write your domain:api_key in private/janrain.key\nfrom gluon.contrib.login_methods.rpx_account import use_janrain\n\nuse_janrain(auth, filename='https://listem.rpxnow.com/fd4160f7ded2d430ae0500004e2d0519feae731e')\n\n\n#########################################################################\n## Define your tables below (or better in another model file) for example\n##\n## >>> db.define_table('mytable',Field('myfield','string'))\n##\n## Fields can be 'string','text','password','integer','double','boolean'\n##       'date','time','datetime','blob','upload', 'reference TABLENAME'\n## There is an implicit 'id integer autoincrement' field\n## Consult manual for more options, validators, etc.\n##\n## More API examples for controllers:\n##\n## >>> db.mytable.insert(myfield='value')\n## >>> rows=db(db.mytable.myfield=='value').select(db.mytable.ALL)\n## >>> for row in rows: print row.id, row.myfield\n#########################################################################\n\n## after defining tables, uncomment below to enable auditing\n# auth.enable_record_versioning(db)\n"
p7
sS'snapshot'
p8
(dp9
S'exception'
p10
(dp11
S'__hash__'
p12
S"<method-wrapper '__hash__' of exceptions.NameError object>"
p13
sS'__setattr__'
p14
S"<method-wrapper '__setattr__' of exceptions.NameError object>"
p15
sS'__reduce_ex__'
p16
S'<built-in method __reduce_ex__ of exceptions.NameError object>'
p17
sS'__getslice__'
p18
S"<method-wrapper '__getslice__' of exceptions.NameError object>"
p19
sS'__getitem__'
p20
S"<method-wrapper '__getitem__' of exceptions.NameError object>"
p21
sS'__setstate__'
p22
S'<built-in method __setstate__ of exceptions.NameError object>'
p23
sS'args'
p24
S'("name \'auth\' is not defined",)'
p25
sS'__reduce__'
p26
S'<built-in method __reduce__ of exceptions.NameError object>'
p27
sS'__str__'
p28
S"<method-wrapper '__str__' of exceptions.NameError object>"
p29
sS'__format__'
p30
S'<built-in method __format__ of exceptions.NameError object>'
p31
sS'__getattribute__'
p32
S"<method-wrapper '__getattribute__' of exceptions.NameError object>"
p33
sS'__class__'
p34
S"<type 'exceptions.NameError'>"
p35
sS'__unicode__'
p36
S'<built-in method __unicode__ of exceptions.NameError object>'
p37
sS'__delattr__'
p38
S"<method-wrapper '__delattr__' of exceptions.NameError object>"
p39
sS'__subclasshook__'
p40
S'<built-in method __subclasshook__ of type object>'
p41
sS'__repr__'
p42
S"<method-wrapper '__repr__' of exceptions.NameError object>"
p43
sS'__dict__'
p44
S'{}'
p45
sS'__sizeof__'
p46
S'<built-in method __sizeof__ of exceptions.NameError object>'
p47
sS'__doc__'
p48
S"'Name not found globally.'"
p49
sS'__init__'
p50
S"<method-wrapper '__init__' of exceptions.NameError object>"
p51
sS'__new__'
p52
S'<built-in method __new__ of type object>'
p53
ssS'evalue'
p54
S"name 'auth' is not defined"
p55
sS'request'
p56
cgluon.html
XML_unpickle
p57
(S'so^\x00\x00<div><table><tr><td style="font-weight:bold;vertical-align:top;">ajax</td><td style="vertical-align:top;">:</td><td><div>False</div></td></tr><tr><td style="font-weight:bold;vertical-align:top;">application</td><td style="vertical-align:top;">:</td><td><div>listemAlpha</div></td></tr><tr><td style="font-weight:bold;vertical-align:top;">args</td><td style="vertical-align:top;">:</td><td><div><table></table></div></td></tr><tr><td style="font-weight:bold;vertical-align:top;">cid</td><td style="vertical-align:top;">:</td><td><div>None</div></td></tr><tr><td style="font-weight:bold;vertical-align:top;">client</td><td style="vertical-align:top;">:</td><td><div>127.0.0.1</div></td></tr><tr><td style="font-weight:bold;vertical-align:top;">controller</td><td style="vertical-align:top;">:</td><td><div>default</div></td></tr><tr><td style="font-weight:bold;vertical-align:top;">cookies</td><td style="vertical-align:top;">:</td><td><div><table><tr><td style="font-weight:bold;vertical-align:top;">session_id_admin</td><td style="vertical-align:top;">:</td><td><div>127.0.0.1-0854d3ed-71d5-4a7a-b1cd-c65f20cb555e<table><tr><td style="font-weight:bold;vertical-align:top;">comment</td><td style="vertical-align:top;">:</td><td><div></div></td></tr><tr><td style="font-weight:bold;vertical-align:top;">domain</td><td style="vertical-align:top;">:</td><td><div></div></td></tr><tr><td style="font-weight:bold;vertical-align:top;">expires</td><td style="vertical-align:top;">:</td><td><div></div></td></tr><tr><td style="font-weight:bold;vertical-align:top;">httponly</td><td style="vertical-align:top;">:</td><td><div></div></td></tr><tr><td style="font-weight:bold;vertical-align:top;">max-age</td><td style="vertical-align:top;">:</td><td><div></div></td></tr><tr><td style="font-weight:bold;vertical-align:top;">path</td><td style="vertical-align:top;">:</td><td><div></div></td></tr><tr><td style="font-weight:bold;vertical-align:top;">secure</td><td style="vertical-align:top;">:</td><td><div></div></td></tr><tr><td style="font-weight:bold;vertical-align:top;">version</td><td style="vertical-align:top;">:</td><td><div></div></td></tr></table></div></td></tr><tr><td style="font-weight:bold;vertical-align:top;">session_id_listemalpha</td><td style="vertical-align:top;">:</td><td><div>127.0.0.1-faf92fca-3499-4a9a-b22a-d3f1171f1a4d<table><tr><td style="font-weight:bold;vertical-align:top;">comment</td><td style="vertical-align:top;">:</td><td><div></div></td></tr><tr><td style="font-weight:bold;vertical-align:top;">domain</td><td style="vertical-align:top;">:</td><td><div></div></td></tr><tr><td style="font-weight:bold;vertical-align:top;">expires</td><td style="vertical-align:top;">:</td><td><div></div></td></tr><tr><td style="font-weight:bold;vertical-align:top;">httponly</td><td style="vertical-align:top;">:</td><td><div></div></td></tr><tr><td style="font-weight:bold;vertical-align:top;">max-age</td><td style="vertical-align:top;">:</td><td><div></div></td></tr><tr><td style="font-weight:bold;vertical-align:top;">path</td><td style="vertical-align:top;">:</td><td><div></div></td></tr><tr><td style="font-weight:bold;vertical-align:top;">secure</td><td style="vertical-align:top;">:</td><td><div></div></td></tr><tr><td style="font-weight:bold;vertical-align:top;">version</td><td style="vertical-align:top;">:</td><td><div></div></td></tr></table></div></td></tr><tr><td style="font-weight:bold;vertical-align:top;">session_id_welcome</td><td style="vertical-align:top;">:</td><td><div>127.0.0.1-2b5232d5-9735-4044-af1a-9a636bbc08b7<table><tr><td style="font-weight:bold;vertical-align:top;">comment</td><td style="vertical-align:top;">:</td><td><div></div></td></tr><tr><td style="font-weight:bold;vertical-align:top;">domain</td><td style="vertical-align:top;">:</td><td><div></div></td></tr><tr><td style="font-weight:bold;vertical-align:top;">expires</td><td style="vertical-align:top;">:</td><td><div></div></td></tr><tr><td style="font-weight:bold;vertical-align:top;">httponly</td><td style="vertical-align:top;">:</td><td><div></div></td></tr><tr><td style="font-weight:bold;vertical-align:top;">max-age</td><td style="vertical-align:top;">:</td><td><div></div></td></tr><tr><td style="font-weight:bold;vertical-align:top;">path</td><td style="vertical-align:top;">:</td><td><div></div></td></tr><tr><td style="font-weight:bold;vertical-align:top;">secure</td><td style="vertical-align:top;">:</td><td><div></div></td></tr><tr><td style="font-weight:bold;vertical-align:top;">version</td><td style="vertical-align:top;">:</td><td><div></div></td></tr></table></div></td></tr></table></div></td></tr><tr><td style="font-weight:bold;vertical-align:top;">env</td><td style="vertical-align:top;">:</td><td><div><table><tr><td style="font-weight:bold;vertical-align:top;">HTTP_ACCEPT</td><td style="vertical-align:top;">:</td><td><div>text/html,application/xhtml+xml,application/xml;q=0.9,image/webp,*/*;q=0.8</div></td></tr><tr><td style="font-weight:bold;vertical-align:top;">HTTP_ACCEPT_ENCODING</td><td style="vertical-align:top;">:</td><td><div>gzip,deflate,sdch</div></td></tr><tr><td style="font-weight:bold;vertical-align:top;">HTTP_ACCEPT_LANGUAGE</td><td style="vertical-align:top;">:</td><td><div>en-US,en;q=0.8</div></td></tr><tr><td style="font-weight:bold;vertical-align:top;">HTTP_CACHE_CONTROL</td><td style="vertical-align:top;">:</td><td><div>max-age=0</div></td></tr><tr><td style="font-weight:bold;vertical-align:top;">HTTP_CONNECTION</td><td style="vertical-align:top;">:</td><td><div>keep-alive</div></td></tr><tr><td style="font-weight:bold;vertical-align:top;">HTTP_COOKIE</td><td style="vertical-align:top;">:</td><td><div>_ga=GA1.1.573380557.1400820513; session_id_welcome=127.0.0.1-2b5232d5-9735-4044-af1a-9a636bbc08b7; session_id_listemalpha=127.0.0.1-faf92fca-3499-4a9a-b22a-d3f1171f1a4d; session_id_admin=127.0.0.1-0854d3ed-71d5-4a7a-b1cd-c65f20cb555e</div></td></tr><tr><td style="font-weight:bold;vertical-align:top;">HTTP_HOST</td><td style="vertical-align:top;">:</td><td><div>127.0.0.1:8000</div></td></tr><tr><td style="font-weight:bold;vertical-align:top;">HTTP_REFERER</td><td style="vertical-align:top;">:</td><td><div>http://127.0.0.1:8000/listemAlpha/default/index</div></td></tr><tr><td style="font-weight:bold;vertical-align:top;">HTTP_USER_AGENT</td><td style="vertical-align:top;">:</td><td><div>Mozilla/5.0 (Macintosh; Intel Mac OS X 10_9_1) AppleWebKit/537.36 (KHTML, like Gecko) Chrome/36.0.1985.125 Safari/537.36</div></td></tr><tr><td style="font-weight:bold;vertical-align:top;">PATH_INFO</td><td style="vertical-align:top;">:</td><td><div>/listemAlpha/default/index</div></td></tr><tr><td style="font-weight:bold;vertical-align:top;">QUERY_STRING</td><td style="vertical-align:top;">:</td><td><div></div></td></tr><tr><td style="font-weight:bold;vertical-align:top;">REMOTE_ADDR</td><td style="vertical-align:top;">:</td><td><div>127.0.0.1</div></td></tr><tr><td style="font-weight:bold;vertical-align:top;">REMOTE_PORT</td><td style="vertical-align:top;">:</td><td><div>62797</div></td></tr><tr><td style="font-weight:bold;vertical-align:top;">REQUEST_METHOD</td><td style="vertical-align:top;">:</td><td><div>GET</div></td></tr><tr><td style="font-weight:bold;vertical-align:top;">SCRIPT_NAME</td><td style="vertical-align:top;">:</td><td><div></div></td></tr><tr><td style="font-weight:bold;vertical-align:top;">SERVER_NAME</td><td style="vertical-align:top;">:</td><td><div>Sepehrs-MacBook-Air.local</div></td></tr><tr><td style="font-weight:bold;vertical-align:top;">SERVER_PORT</td><td style="vertical-align:top;">:</td><td><div>8000</div></td></tr><tr><td style="font-weight:bold;vertical-align:top;">SERVER_PROTOCOL</td><td style="vertical-align:top;">:</td><td><div>HTTP/1.1</div></td></tr><tr><td style="font-weight:bold;vertical-align:top;">SERVER_SOFTWARE</td><td style="vertical-align:top;">:</td><td><div>Rocket 1.2.6</div></td></tr><tr><td style="font-weight:bold;vertical-align:top;">app_folders</td><td style="vertical-align:top;">:</td><td><div>set([&#x27;/Users/sepehrtaheri/PycharmProjects/listEmAlpha/web2py/applications/listemAlpha/&#x27;, &#x27;/Users/sepehrtaheri/PycharmProjects/listEmAlpha/web2py/applications/admin/&#x27;, &#x27;/Users/sepehrtaheri/PycharmProjects/listEmAlpha/web2py/applications/welcome/&#x27;])</div></td></tr><tr><td style="font-weight:bold;vertical-align:top;">applications_parent</td><td style="vertical-align:top;">:</td><td><div>/Users/sepehrtaheri/PycharmProjects/listEmAlpha/web2py</div></td></tr><tr><td style="font-weight:bold;vertical-align:top;">cmd_args</td><td style="vertical-align:top;">:</td><td><div><table></table></div></td></tr><tr><td style="font-weight:bold;vertical-align:top;">cmd_options</td><td style="vertical-align:top;">:</td><td><div>&lt;Values at 0x102520fc8: {&#x27;verbose&#x27;: False, &#x27;ip&#x27;: &#x27;127.0.0.1&#x27;, &#x27;debuglevel&#x27;: 30, &#x27;with_scheduler&#x27;: False, &#x27;ips&#x27;: [&#x27;192.168.1.84&#x27;, &#x27;fe80::60c:ceff:fed3:73ae%en0&#x27;], &#x27;shutdown_timeout&#x27;: 5, &#x27;taskbar&#x27;: False, &#x27;with_coverage&#x27;: False, &#x27;port&#x27;: 8000, &#x27;maxthreads&#x27;: None, &#x27;softcron&#x27;: False, &#x27;server_name&#x27;: &#x27;Sepehrs-MacBook-Air.local&#x27;, &#x27;bpython&#x27;: False, &#x27;nogui&#x27;: False, &#x27;pid_filename&#x27;: &#x27;httpserver.pid&#x27;, &#x27;extcron&#x27;: False, &#x27;runcron&#x27;: False, &#x27;run_system_tests&#x27;: False, &#x27;test&#x27;: None, &#x27;folder&#x27;: &#x27;/Users/sepehrtaheri/PycharmProjects/listEmAlpha/web2py&#x27;, &#x27;config&#x27;: &#x27;&#x27;, &#x27;minthreads&#x27;: None, &#x27;shell&#x27;: None, &#x27;run&#x27;: &#x27;&#x27;, &#x27;log_filename&#x27;: &#x27;httpserver.log&#x27;, &#x27;profiler_dir&#x27;: None, &#x27;args&#x27;: [&#x27;&#x27;], &#x27;socket_timeout&#x27;: 5, &#x27;ssl_ca_certificate&#x27;: None, &#x27;scheduler&#x27;: None, &#x27;interfaces&#x27;: None, &#x27;ssl_private_key&#x27;: &#x27;&#x27;, &#x27;scheduler_groups&#x27;: None, &#x27;password&#x27;: &#x27;&lt;ask&gt;&#x27;, &#x27;request_queue_size&#x27;: 5, &#x27;ssl_certificate&#x27;: &#x27;&#x27;, &#x27;cronjob&#x27;: False, &#x27;numthreads&#x27;: None, &#x27;quiet&#x27;: False, &#x27;import_models&#x27;: False, &#x27;timeout&#x27;: 10, &#x27;plain&#x27;: False, &#x27;nobanner&#x27;: False}&gt;</div></td></tr><tr><td style="font-weight:bold;vertical-align:top;">db_sessions</td><td style="vertical-align:top;">:</td><td><div>set([])</div></td></tr><tr><td style="font-weight:bold;vertical-align:top;">debugging</td><td style="vertical-align:top;">:</td><td><div>False</div></td></tr><tr><td style="font-weight:bold;vertical-align:top;">gluon_parent</td><td style="vertical-align:top;">:</td><td><div>/Users/sepehrtaheri/PycharmProjects/listEmAlpha/web2py</div></td></tr><tr><td style="font-weight:bold;vertical-align:top;">http_accept</td><td style="vertical-align:top;">:</td><td><div>text/html,application/xhtml+xml,application/xml;q=0.9,image/webp,*/*;q=0.8</div></td></tr><tr><td style="font-weight:bold;vertical-align:top;">http_accept_encoding</td><td style="vertical-align:top;">:</td><td><div>gzip,deflate,sdch</div></td></tr><tr><td style="font-weight:bold;vertical-align:top;">http_accept_language</td><td style="vertical-align:top;">:</td><td><div>en-US,en;q=0.8</div></td></tr><tr><td style="font-weight:bold;vertical-align:top;">http_cache_control</td><td style="vertical-align:top;">:</td><td><div>max-age=0</div></td></tr><tr><td style="font-weight:bold;vertical-align:top;">http_connection</td><td style="vertical-align:top;">:</td><td><div>keep-alive</div></td></tr><tr><td style="font-weight:bold;vertical-align:top;">http_cookie</td><td style="vertical-align:top;">:</td><td><div>_ga=GA1.1.573380557.1400820513; session_id_welcome=127.0.0.1-2b5232d5-9735-4044-af1a-9a636bbc08b7; session_id_listemalpha=127.0.0.1-faf92fca-3499-4a9a-b22a-d3f1171f1a4d; session_id_admin=127.0.0.1-0854d3ed-71d5-4a7a-b1cd-c65f20cb555e</div></td></tr><tr><td style="font-weight:bold;vertical-align:top;">http_host</td><td style="vertical-align:top;">:</td><td><div>127.0.0.1:8000</div></td></tr><tr><td style="font-weight:bold;vertical-align:top;">http_referer</td><td style="vertical-align:top;">:</td><td><div>http://127.0.0.1:8000/listemAlpha/default/index</div></td></tr><tr><td style="font-weight:bold;vertical-align:top;">http_user_agent</td><td style="vertical-align:top;">:</td><td><div>Mozilla/5.0 (Macintosh; Intel Mac OS X 10_9_1) AppleWebKit/537.36 (KHTML, like Gecko) Chrome/36.0.1985.125 Safari/537.36</div></td></tr><tr><td style="font-weight:bold;vertical-align:top;">is_jython</td><td style="vertical-align:top;">:</td><td><div>False</div></td></tr><tr><td style="font-weight:bold;vertical-align:top;">is_pypy</td><td style="vertical-align:top;">:</td><td><div>False</div></td></tr><tr><td style="font-weight:bold;vertical-align:top;">is_source</td><td style="vertical-align:top;">:</td><td><div>True</div></td></tr><tr><td style="font-weight:bold;vertical-align:top;">local_hosts</td><td style="vertical-align:top;">:</td><td><div><table><tr><td><div>192.168.1.84</div></td></tr><tr><td><div>::ffff:127.0.0.1</div></td></tr><tr><td><div>fe80::60c:ceff:fed3:73ae%en0</div></td></tr><tr><td><div>::1</div></td></tr><tr><td><div>Sepehrs-MacBook-Air.local</div></td></tr><tr><td><div>127.0.0.1</div></td></tr></table></div></td></tr><tr><td style="font-weight:bold;vertical-align:top;">path_info</td><td style="vertical-align:top;">:</td><td><div>/listemAlpha/default/index</div></td></tr><tr><td style="font-weight:bold;vertical-align:top;">query_string</td><td style="vertical-align:top;">:</td><td><div></div></td></tr><tr><td style="font-weight:bold;vertical-align:top;">remote_addr</td><td style="vertical-align:top;">:</td><td><div>127.0.0.1</div></td></tr><tr><td style="font-weight:bold;vertical-align:top;">remote_port</td><td style="vertical-align:top;">:</td><td><div>62797</div></td></tr><tr><td style="font-weight:bold;vertical-align:top;">request_method</td><td style="vertical-align:top;">:</td><td><div>GET</div></td></tr><tr><td style="font-weight:bold;vertical-align:top;">request_uri</td><td style="vertical-align:top;">:</td><td><div>/listemAlpha/default/index</div></td></tr><tr><td style="font-weight:bold;vertical-align:top;">script_name</td><td style="vertical-align:top;">:</td><td><div></div></td></tr><tr><td style="font-weight:bold;vertical-align:top;">server_name</td><td style="vertical-align:top;">:</td><td><div>Sepehrs-MacBook-Air.local</div></td></tr><tr><td style="font-weight:bold;vertical-align:top;">server_port</td><td style="vertical-align:top;">:</td><td><div>8000</div></td></tr><tr><td style="font-weight:bold;vertical-align:top;">server_protocol</td><td style="vertical-align:top;">:</td><td><div>HTTP/1.1</div></td></tr><tr><td style="font-weight:bold;vertical-align:top;">server_software</td><td style="vertical-align:top;">:</td><td><div>Rocket 1.2.6</div></td></tr><tr><td style="font-weight:bold;vertical-align:top;">web2py_path</td><td style="vertical-align:top;">:</td><td><div>/Users/sepehrtaheri/PycharmProjects/listEmAlpha/web2py</div></td></tr><tr><td style="font-weight:bold;vertical-align:top;">web2py_version</td><td style="vertical-align:top;">:</td><td><div>2.9.5-stable+timestamp.2014.03.16.02.35.39</div></td></tr><tr><td style="font-weight:bold;vertical-align:top;">wsgi.errors</td><td style="vertical-align:top;">:</td><td><div>&lt;open file &#x27;&lt;stderr&gt;&#x27;, mode &#x27;w&#x27; at 0x1016521e0&gt;</div></td></tr><tr><td style="font-weight:bold;vertical-align:top;">wsgi.file_wrapper</td><td style="vertical-align:top;">:</td><td><div>&lt;class wsgiref.util.FileWrapper at 0x102251ef0&gt;</div></td></tr><tr><td style="font-weight:bold;vertical-align:top;">wsgi.input</td><td style="vertical-align:top;">:</td><td><div>&lt;socket._fileobject object at 0x107d570d0&gt;</div></td></tr><tr><td style="font-weight:bold;vertical-align:top;">wsgi.multiprocess</td><td style="vertical-align:top;">:</td><td><div>False</div></td></tr><tr><td style="font-weight:bold;vertical-align:top;">wsgi.multithread</td><td style="vertical-align:top;">:</td><td><div>True</div></td></tr><tr><td style="font-weight:bold;vertical-align:top;">wsgi.run_once</td><td style="vertical-align:top;">:</td><td><div>False</div></td></tr><tr><td style="font-weight:bold;vertical-align:top;">wsgi.url_scheme</td><td style="vertical-align:top;">:</td><td><div>http</div></td></tr><tr><td style="font-weight:bold;vertical-align:top;">wsgi.version</td><td style="vertical-align:top;">:</td><td><div><table><tr><td><div>1</div></td></tr><tr><td><div>0</div></td></tr></table></div></td></tr><tr><td style="font-weight:bold;vertical-align:top;">wsgi_errors</td><td style="vertical-align:top;">:</td><td><div>&lt;open file &#x27;&lt;stderr&gt;&#x27;, mode &#x27;w&#x27; at 0x1016521e0&gt;</div></td></tr><tr><td style="font-weight:bold;vertical-align:top;">wsgi_file_wrapper</td><td style="vertical-align:top;">:</td><td><div>&lt;class wsgiref.util.FileWrapper at 0x102251ef0&gt;</div></td></tr><tr><td style="font-weight:bold;vertical-align:top;">wsgi_input</td><td style="vertical-align:top;">:</td><td><div>&lt;socket._fileobject object at 0x107d570d0&gt;</div></td></tr><tr><td style="font-weight:bold;vertical-align:top;">wsgi_multiprocess</td><td style="vertical-align:top;">:</td><td><div>False</div></td></tr><tr><td style="font-weight:bold;vertical-align:top;">wsgi_multithread</td><td style="vertical-align:top;">:</td><td><div>True</div></td></tr><tr><td style="font-weight:bold;vertical-align:top;">wsgi_run_once</td><td style="vertical-align:top;">:</td><td><div>False</div></td></tr><tr><td style="font-weight:bold;vertical-align:top;">wsgi_url_scheme</td><td style="vertical-align:top;">:</td><td><div>http</div></td></tr><tr><td style="font-weight:bold;vertical-align:top;">wsgi_version</td><td style="vertical-align:top;">:</td><td><div><table><tr><td><div>1</div></td></tr><tr><td><div>0</div></td></tr></table></div></td></tr></table></div></td></tr><tr><td style="font-weight:bold;vertical-align:top;">extension</td><td style="vertical-align:top;">:</td><td><div>html</div></td></tr><tr><td style="font-weight:bold;vertical-align:top;">folder</td><td style="vertical-align:top;">:</td><td><div>/Users/sepehrtaheri/PycharmProjects/listEmAlpha/web2py/applications/listemAlpha/</div></td></tr><tr><td style="font-weight:bold;vertical-align:top;">function</td><td style="vertical-align:top;">:</td><td><div>index</div></td></tr><tr><td style="font-weight:bold;vertical-align:top;">global_settings</td><td style="vertical-align:top;">:</td><td><div><table><tr><td style="font-weight:bold;vertical-align:top;">app_folders</td><td style="vertical-align:top;">:</td><td><div>set([&#x27;/Users/sepehrtaheri/PycharmProjects/listEmAlpha/web2py/applications/listemAlpha/&#x27;, &#x27;/Users/sepehrtaheri/PycharmProjects/listEmAlpha/web2py/applications/admin/&#x27;, &#x27;/Users/sepehrtaheri/PycharmProjects/listEmAlpha/web2py/applications/welcome/&#x27;])</div></td></tr><tr><td style="font-weight:bold;vertical-align:top;">applications_parent</td><td style="vertical-align:top;">:</td><td><div>/Users/sepehrtaheri/PycharmProjects/listEmAlpha/web2py</div></td></tr><tr><td style="font-weight:bold;vertical-align:top;">cmd_args</td><td style="vertical-align:top;">:</td><td><div><table></table></div></td></tr><tr><td style="font-weight:bold;vertical-align:top;">cmd_options</td><td style="vertical-align:top;">:</td><td><div>&lt;Values at 0x102520fc8: {&#x27;verbose&#x27;: False, &#x27;ip&#x27;: &#x27;127.0.0.1&#x27;, &#x27;debuglevel&#x27;: 30, &#x27;with_scheduler&#x27;: False, &#x27;ips&#x27;: [&#x27;192.168.1.84&#x27;, &#x27;fe80::60c:ceff:fed3:73ae%en0&#x27;], &#x27;shutdown_timeout&#x27;: 5, &#x27;taskbar&#x27;: False, &#x27;with_coverage&#x27;: False, &#x27;port&#x27;: 8000, &#x27;maxthreads&#x27;: None, &#x27;softcron&#x27;: False, &#x27;server_name&#x27;: &#x27;Sepehrs-MacBook-Air.local&#x27;, &#x27;bpython&#x27;: False, &#x27;nogui&#x27;: False, &#x27;pid_filename&#x27;: &#x27;httpserver.pid&#x27;, &#x27;extcron&#x27;: False, &#x27;runcron&#x27;: False, &#x27;run_system_tests&#x27;: False, &#x27;test&#x27;: None, &#x27;folder&#x27;: &#x27;/Users/sepehrtaheri/PycharmProjects/listEmAlpha/web2py&#x27;, &#x27;config&#x27;: &#x27;&#x27;, &#x27;minthreads&#x27;: None, &#x27;shell&#x27;: None, &#x27;run&#x27;: &#x27;&#x27;, &#x27;log_filename&#x27;: &#x27;httpserver.log&#x27;, &#x27;profiler_dir&#x27;: None, &#x27;args&#x27;: [&#x27;&#x27;], &#x27;socket_timeout&#x27;: 5, &#x27;ssl_ca_certificate&#x27;: None, &#x27;scheduler&#x27;: None, &#x27;interfaces&#x27;: None, &#x27;ssl_private_key&#x27;: &#x27;&#x27;, &#x27;scheduler_groups&#x27;: None, &#x27;password&#x27;: &#x27;&lt;ask&gt;&#x27;, &#x27;request_queue_size&#x27;: 5, &#x27;ssl_certificate&#x27;: &#x27;&#x27;, &#x27;cronjob&#x27;: False, &#x27;numthreads&#x27;: None, &#x27;quiet&#x27;: False, &#x27;import_models&#x27;: False, &#x27;timeout&#x27;: 10, &#x27;plain&#x27;: False, &#x27;nobanner&#x27;: False}&gt;</div></td></tr><tr><td style="font-weight:bold;vertical-align:top;">db_sessions</td><td style="vertical-align:top;">:</td><td><div>set([])</div></td></tr><tr><td style="font-weight:bold;vertical-align:top;">debugging</td><td style="vertical-align:top;">:</td><td><div>False</div></td></tr><tr><td style="font-weight:bold;vertical-align:top;">gluon_parent</td><td style="vertical-align:top;">:</td><td><div>/Users/sepehrtaheri/PycharmProjects/listEmAlpha/web2py</div></td></tr><tr><td style="font-weight:bold;vertical-align:top;">is_jython</td><td style="vertical-align:top;">:</td><td><div>False</div></td></tr><tr><td style="font-weight:bold;vertical-align:top;">is_pypy</td><td style="vertical-align:top;">:</td><td><div>False</div></td></tr><tr><td style="font-weight:bold;vertical-align:top;">is_source</td><td style="vertical-align:top;">:</td><td><div>True</div></td></tr><tr><td style="font-weight:bold;vertical-align:top;">local_hosts</td><td style="vertical-align:top;">:</td><td><div><table><tr><td><div>192.168.1.84</div></td></tr><tr><td><div>::ffff:127.0.0.1</div></td></tr><tr><td><div>fe80::60c:ceff:fed3:73ae%en0</div></td></tr><tr><td><div>::1</div></td></tr><tr><td><div>Sepehrs-MacBook-Air.local</div></td></tr><tr><td><div>127.0.0.1</div></td></tr></table></div></td></tr><tr><td style="font-weight:bold;vertical-align:top;">web2py_version</td><td style="vertical-align:top;">:</td><td><div>2.9.5-stable+timestamp.2014.03.16.02.35.39</div></td></tr></table></div></td></tr><tr><td style="font-weight:bold;vertical-align:top;">is_https</td><td style="vertical-align:top;">:</td><td><div>False</div></td></tr><tr><td style="font-weight:bold;vertical-align:top;">is_local</td><td style="vertical-align:top;">:</td><td><div>True</div></td></tr><tr><td style="font-weight:bold;vertical-align:top;">is_restful</td><td style="vertical-align:top;">:</td><td><div>False</div></td></tr><tr><td style="font-weight:bold;vertical-align:top;">now</td><td style="vertical-align:top;">:</td><td><div>datetime.datetime(2014, 8, 17, 1, 3, 54, 996479)</div></td></tr><tr><td style="font-weight:bold;vertical-align:top;">raw_args</td><td style="vertical-align:top;">:</td><td><div></div></td></tr><tr><td style="font-weight:bold;vertical-align:top;">raw_extension</td><td style="vertical-align:top;">:</td><td><div>None</div></td></tr><tr><td style="font-weight:bold;vertical-align:top;">url</td><td style="vertical-align:top;">:</td><td><div>/listemAlpha/default/index</div></td></tr><tr><td style="font-weight:bold;vertical-align:top;">utcnow</td><td style="vertical-align:top;">:</td><td><div>datetime.datetime(2014, 8, 17, 8, 3, 54, 996490)</div></td></tr><tr><td style="font-weight:bold;vertical-align:top;">uuid</td><td style="vertical-align:top;">:</td><td><div>listemAlpha/127.0.0.1.2014-08-17.01-03-54.17612652-d998-4438-9405-b97aa8eb8bc0</div></td></tr><tr><td style="font-weight:bold;vertical-align:top;">wsgi</td><td style="vertical-align:top;">:</td><td><div>&lt;gluon.main.LazyWSGI object at 0x10255c9d0&gt;</div></td></tr></table></div>'
tRp58
sS'frames'
p59
(lp60
(dp61
S'file'
p62
S'/Users/sepehrtaheri/PycharmProjects/listEmAlpha/web2py/gluon/restricted.py'
p63
sS'dump'
p64
(dp65
S'environment'
p66
S"{'A': <class 'gluon.html.A'>, 'ANY_OF': <class 'gluon.validators.ANY_OF'>, 'B': <class 'gluon.html.B'>, 'BEAUTIFY': <class 'gluon.html.BEAUTIFY'>, 'BODY': <class 'gluon.html.BODY'>, 'BR': <class 'gluon.html.BR'>, 'BUTTON': <class 'gluon.html.BUTTON'>, 'CAT': <class 'gluon.html.CAT'>, 'CENTER': <class 'gluon.html.CENTER'>, 'CLEANUP': <class 'gluon.validators.CLEANUP'>, ...}"
p67
sS'ccode'
p68
S'<code object <module> at 0x107d06630, file "/Use...y/applications/listemAlpha/models/db.py", line 4>'
p69
ssS'lnum'
p70
I220
sS'lines'
p71
(dp72
I224
S'        # do not encapsulate (obfuscate) the original RestrictedError'
p73
sI215
S'    try:'
p74
sI216
S'        if isinstance(code, types.CodeType):'
p75
sI217
S'            ccode = code'
p76
sI218
S'        else:'
p77
sI219
S'            ccode = compile2(code, layer)'
p78
sI220
S'        exec ccode in environment'
p79
sI221
S'    except HTTP:'
p80
sI222
S'        raise'
p81
sI223
S'    except RestrictedError:'
p82
ssS'call'
p83
S"(code='# -*- coding: utf-8 -*-\\n\\n# bootstrap3 theme for ...ble auditing\\n# auth.enable_record_versioning(db)\\n', environment={'A': <class 'gluon.html.A'>, 'ANY_OF': <class 'gluon.validators.ANY_OF'>, 'B': <class 'gluon.html.B'>, 'BEAUTIFY': <class 'gluon.html.BEAUTIFY'>, 'BODY': <class 'gluon.html.BODY'>, 'BR': <class 'gluon.html.BR'>, 'BUTTON': <class 'gluon.html.BUTTON'>, 'CAT': <class 'gluon.html.CAT'>, 'CENTER': <class 'gluon.html.CENTER'>, 'CLEANUP': <class 'gluon.validators.CLEANUP'>, ...}, layer='/Users/sepehrtaheri/PycharmProjects/listEmAlpha/web2py/applications/listemAlpha/models/db.py')"
p84
sS'func'
p85
S'restricted'
p86
sa(dp87
g62
S'/Users/sepehrtaheri/PycharmProjects/listEmAlpha/web2py/applications/listemAlpha/models/db.py'
p88
sg64
(dp89
S'current'
p90
S'<thread._local object>'
p91
sS'current.auth'
p92
S'undefined'
p93
sS'auth'
p94
g93
ssg70
I5
sg71
(dp95
I2
S''
sI3
S'# bootstrap3 theme for web2py'
p96
sI4
S'from gluon import current'
p97
sI5
S'current.auth = auth'
p98
sI6
S'import bootstrap3 as bs3'
p99
sI7
S''
sI8
S''
sI9
S'# ########################################################################'
p100
sI10
S'# # This scaffolding model makes your app work on Google App Engine too'
p101
sI11
S'## File is released under public domain and you can use without limitations'
p102
ssg83
S'()'
p103
sg85
S'<module>'
p104
sasS'pyver'
p105
S'Python 2.7.5: /System/Library/Frameworks/Python.framework/Versions/2.7/Resources/Python.app/Contents/MacOS/Python (prefix: /System/Library/Frameworks/Python.framework/Versions/2.7)'
p106
sS'session'
p107
g57
(S's\xea\n\x00\x00<div><table><tr><td style="font-weight:bold;vertical-align:top;">auth</td><td style="vertical-align:top;">:</td><td><div><table><tr><td style="font-weight:bold;vertical-align:top;">expiration</td><td style="vertical-align:top;">:</td><td><div>3600</div></td></tr><tr><td style="font-weight:bold;vertical-align:top;">hmac_key</td><td style="vertical-align:top;">:</td><td><div>db81b024-784e-4a11-9072-d8f6bec9a9f9</div></td></tr><tr><td style="font-weight:bold;vertical-align:top;">last_visit</td><td style="vertical-align:top;">:</td><td><div>datetime.datetime(2014, 8, 17, 1, 1, 26, 326276)</div></td></tr><tr><td style="font-weight:bold;vertical-align:top;">remember</td><td style="vertical-align:top;">:</td><td><div>False</div></td></tr><tr><td style="font-weight:bold;vertical-align:top;">user</td><td style="vertical-align:top;">:</td><td><div><table><tr><td style="font-weight:bold;vertical-align:top;">city</td><td style="vertical-align:top;">:</td><td><div>compton</div></td></tr><tr><td style="font-weight:bold;vertical-align:top;">email</td><td style="vertical-align:top;">:</td><td><div>sep@sep.com</div></td></tr><tr><td style="font-weight:bold;vertical-align:top;">first_name</td><td style="vertical-align:top;">:</td><td><div>sep</div></td></tr><tr><td style="font-weight:bold;vertical-align:top;">id</td><td style="vertical-align:top;">:</td><td><div>1L</div></td></tr><tr><td style="font-weight:bold;vertical-align:top;">last_name</td><td style="vertical-align:top;">:</td><td><div>tah</div></td></tr><tr><td style="font-weight:bold;vertical-align:top;">phone</td><td style="vertical-align:top;">:</td><td><div>123-123-1234</div></td></tr><tr><td style="font-weight:bold;vertical-align:top;">registration_id</td><td style="vertical-align:top;">:</td><td><div></div></td></tr><tr><td style="font-weight:bold;vertical-align:top;">registration_key</td><td style="vertical-align:top;">:</td><td><div></div></td></tr><tr><td style="font-weight:bold;vertical-align:top;">reset_password_key</td><td style="vertical-align:top;">:</td><td><div></div></td></tr><tr><td style="font-weight:bold;vertical-align:top;">score</td><td style="vertical-align:top;">:</td><td><div>None</div></td></tr><tr><td style="font-weight:bold;vertical-align:top;">zip</td><td style="vertical-align:top;">:</td><td><div>12321</div></td></tr></table></div></td></tr><tr><td style="font-weight:bold;vertical-align:top;">user_groups</td><td style="vertical-align:top;">:</td><td><div><table><tr><td style="font-weight:bold;vertical-align:top;">1</td><td style="vertical-align:top;">:</td><td><div>user_1</div></td></tr></table></div></td></tr></table></div></td></tr><tr><td style="font-weight:bold;vertical-align:top;">flash</td><td style="vertical-align:top;">:</td><td><div>None</div></td></tr></table></div>'
tRp108
sS'etype'
p109
S"<type 'exceptions.NameError'>"
p110
sS'date'
p111
S'Sun Aug 17 01:03:54 2014'
p112
sS'response'
p113
g57
(S's\x05\x17\x00\x00<div><table><tr><td style="font-weight:bold;vertical-align:top;">body</td><td style="vertical-align:top;">:</td><td><div>&lt;cStringIO.StringO object at 0x107d59730&gt;</div></td></tr><tr><td style="font-weight:bold;vertical-align:top;">cookies</td><td style="vertical-align:top;">:</td><td><div><table><tr><td style="font-weight:bold;vertical-align:top;">session_id_listemalpha</td><td style="vertical-align:top;">:</td><td><div>127.0.0.1-faf92fca-3499-4a9a-b22a-d3f1171f1a4d<table><tr><td style="font-weight:bold;vertical-align:top;">comment</td><td style="vertical-align:top;">:</td><td><div></div></td></tr><tr><td style="font-weight:bold;vertical-align:top;">domain</td><td style="vertical-align:top;">:</td><td><div></div></td></tr><tr><td style="font-weight:bold;vertical-align:top;">expires</td><td style="vertical-align:top;">:</td><td><div></div></td></tr><tr><td style="font-weight:bold;vertical-align:top;">httponly</td><td style="vertical-align:top;">:</td><td><div></div></td></tr><tr><td style="font-weight:bold;vertical-align:top;">max-age</td><td style="vertical-align:top;">:</td><td><div></div></td></tr><tr><td style="font-weight:bold;vertical-align:top;">path</td><td style="vertical-align:top;">:</td><td><div>/</div></td></tr><tr><td style="font-weight:bold;vertical-align:top;">secure</td><td style="vertical-align:top;">:</td><td><div></div></td></tr><tr><td style="font-weight:bold;vertical-align:top;">version</td><td style="vertical-align:top;">:</td><td><div></div></td></tr></table></div></td></tr></table></div></td></tr><tr><td style="font-weight:bold;vertical-align:top;">delimiters</td><td style="vertical-align:top;">:</td><td><div><table><tr><td><div>{{</div></td></tr><tr><td><div>}}</div></td></tr></table></div></td></tr><tr><td style="font-weight:bold;vertical-align:top;">files</td><td style="vertical-align:top;">:</td><td><div><table></table></div></td></tr><tr><td style="font-weight:bold;vertical-align:top;">flash</td><td style="vertical-align:top;">:</td><td><div></div></td></tr><tr><td style="font-weight:bold;vertical-align:top;">generic_patterns</td><td style="vertical-align:top;">:</td><td><div><table></table></div></td></tr><tr><td style="font-weight:bold;vertical-align:top;">headers</td><td style="vertical-align:top;">:</td><td><div><table><tr><td style="font-weight:bold;vertical-align:top;">X-Powered-By</td><td style="vertical-align:top;">:</td><td><div>web2py</div></td></tr></table></div></td></tr><tr><td style="font-weight:bold;vertical-align:top;">menu</td><td style="vertical-align:top;">:</td><td><div><table></table></div></td></tr><tr><td style="font-weight:bold;vertical-align:top;">meta</td><td style="vertical-align:top;">:</td><td><div><table></table></div></td></tr><tr><td style="font-weight:bold;vertical-align:top;">models_to_run</td><td style="vertical-align:top;">:</td><td><div><table><tr><td><div>^\\w+\\.py$</div></td></tr><tr><td><div>^default/\\w+\\.py$</div></td></tr><tr><td><div>^default/index/\\w+\\.py$</div></td></tr></table></div></td></tr><tr><td style="font-weight:bold;vertical-align:top;">postprocessing</td><td style="vertical-align:top;">:</td><td><div><table></table></div></td></tr><tr><td style="font-weight:bold;vertical-align:top;">session_client</td><td style="vertical-align:top;">:</td><td><div>127.0.0.1</div></td></tr><tr><td style="font-weight:bold;vertical-align:top;">session_cookie_compression_level</td><td style="vertical-align:top;">:</td><td><div>None</div></td></tr><tr><td style="font-weight:bold;vertical-align:top;">session_cookie_expires</td><td style="vertical-align:top;">:</td><td><div>None</div></td></tr><tr><td style="font-weight:bold;vertical-align:top;">session_cookie_key</td><td style="vertical-align:top;">:</td><td><div>None</div></td></tr><tr><td style="font-weight:bold;vertical-align:top;">session_data_name</td><td style="vertical-align:top;">:</td><td><div>session_data_listemalpha</div></td></tr><tr><td style="font-weight:bold;vertical-align:top;">session_file</td><td style="vertical-align:top;">:</td><td><div>&lt;open file &#x27;/Users/sepehrtaheri/PycharmProjects/listEmAlpha/web2py/applications/listemAlpha/sessions/127.0.0.1-faf92fca-3499-4a9a-b22a-d3f1171f1a4d&#x27;, mode &#x27;rb+&#x27; at 0x1024d6ae0&gt;</div></td></tr><tr><td style="font-weight:bold;vertical-align:top;">session_filename</td><td style="vertical-align:top;">:</td><td><div>/Users/sepehrtaheri/PycharmProjects/listEmAlpha/web2py/applications/listemAlpha/sessions/127.0.0.1-faf92fca-3499-4a9a-b22a-d3f1171f1a4d</div></td></tr><tr><td style="font-weight:bold;vertical-align:top;">session_hash</td><td style="vertical-align:top;">:</td><td><div>3a67e182a174d2e02f1d898902d3dc09</div></td></tr><tr><td style="font-weight:bold;vertical-align:top;">session_id</td><td style="vertical-align:top;">:</td><td><div>127.0.0.1-faf92fca-3499-4a9a-b22a-d3f1171f1a4d</div></td></tr><tr><td style="font-weight:bold;vertical-align:top;">session_id_name</td><td style="vertical-align:top;">:</td><td><div>session_id_listemalpha</div></td></tr><tr><td style="font-weight:bold;vertical-align:top;">session_locked</td><td style="vertical-align:top;">:</td><td><div>True</div></td></tr><tr><td style="font-weight:bold;vertical-align:top;">session_masterapp</td><td style="vertical-align:top;">:</td><td><div>listemAlpha</div></td></tr><tr><td style="font-weight:bold;vertical-align:top;">session_new</td><td style="vertical-align:top;">:</td><td><div>False</div></td></tr><tr><td style="font-weight:bold;vertical-align:top;">session_storage_type</td><td style="vertical-align:top;">:</td><td><div>file</div></td></tr><tr><td style="font-weight:bold;vertical-align:top;">status</td><td style="vertical-align:top;">:</td><td><div>200</div></td></tr><tr><td style="font-weight:bold;vertical-align:top;">view</td><td style="vertical-align:top;">:</td><td><div>default/index.html</div></td></tr></table></div>'
tRp114
sS'locals'
p115
(dp116
S'OBJECT'
p117
S"<class 'gluon.html.OBJECT'>"
p118
sS'SQLDB'
p119
S"<class 'gluon.dal.DAL'>"
p120
sg107
S"<Storage {'_formkey[no_table/create]': ['aef8740...9ac26', '8286e028-db0b-4821-9195-4ae9abe44012']}>"
p121
sS'LINK'
p122
S"<class 'gluon.html.LINK'>"
p123
sS'BR'
p124
S"<class 'gluon.html.BR'>"
p125
sS'local_import'
p126
S'<function <lambda>>'
p127
sS'OPTGROUP'
p128
S"<class 'gluon.html.OPTGROUP'>"
p129
sS'__package__'
p130
S'None'
p131
sS'PRE'
p132
S"<class 'gluon.html.PRE'>"
p133
sS'IS_INT_IN_RANGE'
p134
S"<class 'gluon.validators.IS_INT_IN_RANGE'>"
p135
sS'IS_LOWER'
p136
S"<class 'gluon.validators.IS_LOWER'>"
p137
sS'IS_STRONG'
p138
S"<class 'gluon.validators.IS_STRONG'>"
p139
sS'cache'
p140
S'<gluon.cache.Cache object>'
p141
sS'IS_IN_DB'
p142
S"<class 'gluon.validators.IS_IN_DB'>"
p143
sS'TAG'
p144
S'<gluon.html.__TAG__ object>'
p145
sS'SQLField'
p146
S"<class 'gluon.dal.Field'>"
p147
sS'BODY'
p148
S"<class 'gluon.html.BODY'>"
p149
sS'IS_DATE_IN_RANGE'
p150
S"<class 'gluon.validators.IS_DATE_IN_RANGE'>"
p151
sS'TH'
p152
S"<class 'gluon.html.TH'>"
p153
sS'URL'
p154
S'<function URL>'
p155
sS'__file__'
p156
S"'/Users/sepehrtaheri/PycharmProjects/listEmAlpha/web2py/applications/listemAlpha/models/db.py'"
p157
sS'P'
S"<class 'gluon.html.P'>"
p158
sS'TFOOT'
p159
S"<class 'gluon.html.TFOOT'>"
p160
sS'XHTML'
p161
S"<class 'gluon.html.XHTML'>"
p162
sS'ON'
p163
S'True'
p164
sS'OL'
p165
S"<class 'gluon.html.OL'>"
p166
sS'TEXTAREA'
p167
S"<class 'gluon.html.TEXTAREA'>"
p168
sS'MENU'
p169
S"<class 'gluon.html.MENU'>"
p170
sS'LOAD'
p171
S'<function LOAD>'
p172
sS'CODE'
p173
S"<class 'gluon.html.CODE'>"
p174
sS'HTTP'
p175
S"<class 'gluon.http.HTTP'>"
p176
sS'HR'
p177
S"<class 'gluon.html.HR'>"
p178
sS'IS_DATETIME'
p179
S"<class 'gluon.validators.IS_DATETIME'>"
p180
sS'HEAD'
p181
S"<class 'gluon.html.HEAD'>"
p182
sS'LABEL'
p183
S"<class 'gluon.html.LABEL'>"
p184
sS'CLEANUP'
p185
S"<class 'gluon.validators.CLEANUP'>"
p186
sS'SELECT'
p187
S"<class 'gluon.html.SELECT'>"
p188
sS'CENTER'
p189
S"<class 'gluon.html.CENTER'>"
p190
sS'current'
p191
S'<thread._local object>'
p192
sS'__builtins__'
p193
S"{'ArithmeticError': <type 'exceptions.ArithmeticError'>, 'AssertionError': <type 'exceptions.AssertionError'>, 'AttributeError': <type 'exceptions.AttributeError'>, 'BaseException': <type 'exceptions.BaseException'>, 'BufferError': <type 'exceptions.BufferError'>, 'BytesWarning': <type 'exceptions.BytesWarning'>, 'DeprecationWarning': <type 'exceptions.DeprecationWarning'>, 'EOFError': <type 'exceptions.EOFError'>, 'Ellipsis': Ellipsis, 'EnvironmentError': <type 'exceptions.EnvironmentError'>, ...}"
p194
sS'HTML'
p195
S"<class 'gluon.html.HTML'>"
p196
sS'SQLFORM'
p197
S"<class 'gluon.sqlhtml.SQLFORM'>"
p198
sS'EM'
p199
S"<class 'gluon.html.EM'>"
p200
sS'redirect'
p201
S'<function redirect>'
p202
sS'FIELDSET'
p203
S"<class 'gluon.html.FIELDSET'>"
p204
sS'IS_EQUAL_TO'
p205
S"<class 'gluon.validators.IS_EQUAL_TO'>"
p206
sS'embed64'
p207
S'<function embed64>'
p208
sS'IS_LIST_OF'
p209
S"<class 'gluon.validators.IS_LIST_OF'>"
p210
sS'__name__'
p211
S"'__restricted__'"
p212
sS'EMBED'
p213
S"<class 'gluon.html.EMBED'>"
p214
sS'FORM'
p215
S"<class 'gluon.html.FORM'>"
p216
sS'H2'
p217
S"<class 'gluon.html.H2'>"
p218
sS'H3'
p219
S"<class 'gluon.html.H3'>"
p220
sS'BUTTON'
p221
S"<class 'gluon.html.BUTTON'>"
p222
sS'H1'
p223
S"<class 'gluon.html.H1'>"
p224
sS'H6'
p225
S"<class 'gluon.html.H6'>"
p226
sS'H4'
p227
S"<class 'gluon.html.H4'>"
p228
sS'H5'
p229
S"<class 'gluon.html.H5'>"
p230
sS'UL'
p231
S"<class 'gluon.html.UL'>"
p232
sS'IS_UPPER'
p233
S"<class 'gluon.validators.IS_UPPER'>"
p234
sS'xmlescape'
p235
S'<function xmlescape>'
p236
sS'IS_TIME'
p237
S"<class 'gluon.validators.IS_TIME'>"
p238
sS'OPTION'
p239
S"<class 'gluon.html.OPTION'>"
p240
sS'TITLE'
p241
S"<class 'gluon.html.TITLE'>"
p242
sS'CRYPT'
p243
S"<class 'gluon.validators.CRYPT'>"
p244
sS'IS_EMPTY_OR'
p245
S"<class 'gluon.validators.IS_EMPTY_OR'>"
p246
sS'MARKMIN'
p247
S"<class 'gluon.html.MARKMIN'>"
p248
sS'INPUT'
p249
S"<class 'gluon.html.INPUT'>"
p250
sS'STRONG'
p251
S"<class 'gluon.html.STRONG'>"
p252
sS'COL'
p253
S"<class 'gluon.html.COL'>"
p254
sS'SCRIPT'
p255
S"<class 'gluon.html.SCRIPT'>"
p256
sS'TABLE'
p257
S"<class 'gluon.html.TABLE'>"
p258
sS'IS_IPV4'
p259
S"<class 'gluon.validators.IS_IPV4'>"
p260
sS'IS_LENGTH'
p261
S"<class 'gluon.validators.IS_LENGTH'>"
p262
sS'IS_IPV6'
p263
S"<class 'gluon.validators.IS_IPV6'>"
p264
sS'XML'
p265
S"<class 'gluon.html.XML'>"
p266
sS'B'
S"<class 'gluon.html.B'>"
p267
sS'IMG'
p268
S"<class 'gluon.html.IMG'>"
p269
sS'SQLTABLE'
p270
S"<class 'gluon.sqlhtml.SQLTABLE'>"
p271
sS'IS_MATCH'
p272
S"<class 'gluon.validators.IS_MATCH'>"
p273
sS'IS_ALPHANUMERIC'
p274
S"<class 'gluon.validators.IS_ALPHANUMERIC'>"
p275
sS'SPAN'
p276
S"<class 'gluon.html.SPAN'>"
p277
sS'IS_JSON'
p278
S"<class 'gluon.validators.IS_JSON'>"
p279
sS'IS_IPADDRESS'
p280
S"<class 'gluon.validators.IS_IPADDRESS'>"
p281
sS'IS_SLUG'
p282
S"<class 'gluon.validators.IS_SLUG'>"
p283
sS'BEAUTIFY'
p284
S"<class 'gluon.html.BEAUTIFY'>"
p285
sS'META'
p286
S"<class 'gluon.html.META'>"
p287
sS'IS_DATE'
p288
S"<class 'gluon.validators.IS_DATE'>"
p289
sS'IS_EMAIL'
p290
S"<class 'gluon.validators.IS_EMAIL'>"
p291
sS'IS_NOT_EMPTY'
p292
S"<class 'gluon.validators.IS_NOT_EMPTY'>"
p293
sS'IS_FLOAT_IN_RANGE'
p294
S"<class 'gluon.validators.IS_FLOAT_IN_RANGE'>"
p295
sS'TBODY'
p296
S"<class 'gluon.html.TBODY'>"
p297
sS'CAT'
p298
S"<class 'gluon.html.CAT'>"
p299
sS'Field'
p300
S"<class 'gluon.dal.Field'>"
p301
sS'IS_LIST_OF_EMAILS'
p302
S"<class 'gluon.validators.IS_LIST_OF_EMAILS'>"
p303
sS'DIV'
p304
S"<class 'gluon.html.DIV'>"
p305
sS'LEGEND'
p306
S"<class 'gluon.html.LEGEND'>"
p307
sS'COLGROUP'
p308
S"<class 'gluon.html.COLGROUP'>"
p309
sS'DAL'
p310
S"<class 'gluon.dal.DAL'>"
p311
sS'TT'
p312
S"<class 'gluon.html.TT'>"
p313
sS'TR'
p314
S"<class 'gluon.html.TR'>"
p315
sS'LI'
p316
S"<class 'gluon.html.LI'>"
p317
sS'IFRAME'
p318
S"<class 'gluon.html.IFRAME'>"
p319
sS'TD'
p320
S"<class 'gluon.html.TD'>"
p321
sS'IS_URL'
p322
S"<class 'gluon.validators.IS_URL'>"
p323
sS'A'
S"<class 'gluon.html.A'>"
p324
sS'STYLE'
p325
S"<class 'gluon.html.STYLE'>"
p326
sS'IS_DATETIME_IN_RANGE'
p327
S"<class 'gluon.validators.IS_DATETIME_IN_RANGE'>"
p328
sS'IS_IMAGE'
p329
S"<class 'gluon.validators.IS_IMAGE'>"
p330
sS'I'
S"<class 'gluon.html.I'>"
p331
sS'IS_NOT_IN_DB'
p332
S"<class 'gluon.validators.IS_NOT_IN_DB'>"
p333
sg113
S"<Storage {'body': <cStringIO.StringO object at 0...> at 0x104537d70>, 'view': 'default/index.html'}>"
p334
sS'THEAD'
p335
S"<class 'gluon.html.THEAD'>"
p336
sS'ANY_OF'
p337
S"<class 'gluon.validators.ANY_OF'>"
p338
sS'IS_NULL_OR'
p339
S"<class 'gluon.validators.IS_EMPTY_OR'>"
p340
sg56
S"<Storage {'_vars': None, 'function': 'index', 'c...s/listEmAlpha/web2py/applications/listemAlpha/'}>"
p341
sS'IS_EXPR'
p342
S"<class 'gluon.validators.IS_EXPR'>"
p343
sS'IS_IN_SET'
p344
S"<class 'gluon.validators.IS_IN_SET'>"
p345
sS'IS_UPLOAD_FILENAME'
p346
S"<class 'gluon.validators.IS_UPLOAD_FILENAME'>"
p347
sS'IS_DECIMAL_IN_RANGE'
p348
S"<class 'gluon.validators.IS_DECIMAL_IN_RANGE'>"
p349
sS'T'
S'<gluon.languages.translator object>'
p350
sssS'traceback'
p351
S'Traceback (most recent call last):\n  File "/Users/sepehrtaheri/PycharmProjects/listEmAlpha/web2py/gluon/restricted.py", line 220, in restricted\n    exec ccode in environment\n  File "/Users/sepehrtaheri/PycharmProjects/listEmAlpha/web2py/applications/listemAlpha/models/db.py", line 5, in <module>\n    current.auth = auth\nNameError: name \'auth\' is not defined\n'
p352
s.