(dp1
S'output'
p2
S'<class \'gluon.contrib.pymysql.err.ProgrammingError\'> (1146, u"Table \'vancouver.category\' doesn\'t exist")'
p3
sS'layer'
p4
S'/Users/sepehrtaheri/PycharmProjects/adguru/web2py/applications/adguru/models/db_van_cat.py'
p5
sS'code'
p6
S"db.define_table('category',\n                Field('category_title', 'text'),\n                Field('craigslist', 'text', notnull=True),\n                Field('kijiji', 'text', notnull=True),\n                Field('usedeverywhere', 'text', notnull=True), migrate=True)\n"
p7
sS'snapshot'
p8
(dp9
sS'traceback'
p10
S'Traceback (most recent call last):\n  File "/Users/sepehrtaheri/PycharmProjects/adguru/web2py/gluon/restricted.py", line 220, in restricted\n    exec ccode in environment\n  File "/Users/sepehrtaheri/PycharmProjects/adguru/web2py/applications/adguru/models/db_van_cat.py", line 5, in <module>\n    Field(\'usedeverywhere\', \'text\', notnull=True), migrate=True)\n  File "/Users/sepehrtaheri/PycharmProjects/adguru/web2py/gluon/dal.py", line 8223, in define_table\n    table = self.lazy_define_table(tablename,*fields,**args)\n  File "/Users/sepehrtaheri/PycharmProjects/adguru/web2py/gluon/dal.py", line 8260, in lazy_define_table\n    polymodel=polymodel)\n  File "/Users/sepehrtaheri/PycharmProjects/adguru/web2py/gluon/dal.py", line 1132, in create_table\n    fake_migrate=fake_migrate\n  File "/Users/sepehrtaheri/PycharmProjects/adguru/web2py/gluon/dal.py", line 1245, in migrate_table\n    self.execute(sub_query)\n  File "/Users/sepehrtaheri/PycharmProjects/adguru/web2py/gluon/dal.py", line 1969, in execute\n    return self.log_execute(*a, **b)\n  File "/Users/sepehrtaheri/PycharmProjects/adguru/web2py/gluon/dal.py", line 1963, in log_execute\n    ret = self.cursor.execute(command, *a[1:], **b)\n  File "/Users/sepehrtaheri/PycharmProjects/adguru/web2py/gluon/contrib/pymysql/cursors.py", line 117, in execute\n    self.errorhandler(self, exc, value)\n  File "/Users/sepehrtaheri/PycharmProjects/adguru/web2py/gluon/contrib/pymysql/connections.py", line 202, in defaulterrorhandler\n    raise errorclass, errorvalue\nProgrammingError: (1146, u"Table \'vancouver.category\' doesn\'t exist")\n'
p11
s.