(dp1
S'output'
p2
S"<type 'exceptions.NameError'> name 'search' is not defined"
p3
sS'layer'
p4
S'/Users/sepehrtaheri/PycharmProjects/adguru/web2py/applications/adguru/views/default/searchposts.html'
p5
sS'code'
p6
S'response.write(\'<!--[if HTML5]><![endif]-->\\n<!DOCTYPE html>\\n<!-- paulirish.com/2008/conditional-stylesheets-vs-css-hacks-answer-neither/ -->\\n<!--[if lt IE 7]><html class="ie ie6 ie-lte9 ie-lte8 ie-lte7 no-js" lang="\', escape=False)\nresponse.write(T.accepted_language or \'en\')\nresponse.write(\'"> <![endif]-->\\n<!--[if IE 7]><html class="ie ie7 ie-lte9 ie-lte8 ie-lte7 no-js" lang="\', escape=False)\nresponse.write(T.accepted_language or \'en\')\nresponse.write(\'"> <![endif]-->\\n<!--[if IE 8]><html class="ie ie8 ie-lte9 ie-lte8 no-js" lang="\', escape=False)\nresponse.write(T.accepted_language or \'en\')\nresponse.write(\'"> <![endif]-->\\n<!--[if IE 9]><html class="ie9 ie-lte9 no-js" lang="\', escape=False)\nresponse.write(T.accepted_language or \'en\')\nresponse.write(\'"> <![endif]-->\\n<!--[if (gt IE 9)|!(IE)]><!--> <html class="no-js" lang="\', escape=False)\nresponse.write(T.accepted_language or \'en\')\nresponse.write(\'"> <!--<![endif]-->\\n<head>\\n<script src="\', escape=False)\nresponse.write(URL(\'static\', \'js/jquery-2.1.1.js\'))\nresponse.write(\'" type="text/javascript"></script>\\n<title>\', escape=False)\nresponse.write(response.title or request.application)\nresponse.write(\'</title>\\n  <!--[if !HTML5]>\\n      <meta http-equiv="X-UA-Compatible" content="IE=edge\', escape=False)\nresponse.write(not request.is_local and \',chrome=1\' or \'\')\nresponse.write(\'">\\n  <![endif]-->\\n  <!-- www.phpied.com/conditional-comments-block-downloads/ -->\\n  <!-- Always force latest IE rendering engine\\n       (even in intranet) & Chrome Frame\\n       Remove this if you use the .htaccess -->\\n\\t   \\n  <meta charset="utf-8" />\\n\\n  <!-- http://dev.w3.org/html5/markup/meta.name.html -->\\n  <meta name="application-name" content="\', escape=False)\nresponse.write(request.application)\nresponse.write(\'" />\\n\\n  <!-- Speaking of Google, don\\\'t forget to set your site up:\\n       http://google.com/webmasters -->\\n  <meta name="google-site-verification" content="" />\\n\\n  <!--  Mobile Viewport Fix\\n        j.mp/mobileviewport & davidbcalhoun.com/2010/viewport-metatag\\n        device-width: Occupy full width of the screen in its current orientation\\n        initial-scale = 1.0 retains dimensions instead of zooming out if page height > device height\\n        user-scalable = yes allows the user to zoom in -->\\n  <meta name="viewport" content="width=device-width, initial-scale=1.0" />\\n\\n  <link rel="shortcut icon" href="\', escape=False)\nresponse.write(URL(\'static\',\'images/favicon.ico\'))\nresponse.write(\'" type="image/x-icon">\\n  <link rel="apple-touch-icon" href="\', escape=False)\nresponse.write(URL(\'static\',\'images/favicon.png\'))\nresponse.write(\'">\\n\\n  <!-- All JavaScript at the bottom, except for Modernizr which enables\\n       HTML5 elements & feature detects -->\\n\\n  <!-- include stylesheets -->\\n  \', escape=False)\nresponse.files.insert(0,URL(\'static\',\'css/bootstrap.css\'))\n#response.files.insert(0,URL(\'static\',\'css/bootstrap-theme.css\'))\n#response.files.insert(0,URL(\'static\',\'css/bootstrap-theme.min.css\'))\nresponse.files.insert(1,URL(\'static\',\'css/bootstrap.min.css\'))\n#response.files.insert(2,URL(\'static\',\'css/bootstrap-responsive.min.css\'))\nresponse.files.insert(3,URL(\'static\',\'css/web2py-bootstrap3.css\'))\nresponse.write(\'\\n\\n  \', escape=False)\nresponse.write(\'<script type="text/javascript"><!--\\n    // These variables are used by the web2py_ajax_init function in web2py_ajax.js (which is loaded below).\\n    var w2p_ajax_confirm_message = "\', escape=False)\nresponse.write(T(\'Are you sure you want to delete this object?\'))\nresponse.write(\'";\\n    var w2p_ajax_disable_with_message = "\', escape=False)\nresponse.write(T(\'Working...\'))\nresponse.write(\'";\\n    var w2p_ajax_date_format = "\', escape=False)\nresponse.write(T(\'%Y-%m-%d\'))\nresponse.write(\'";\\n    var w2p_ajax_datetime_format = "\', escape=False)\nresponse.write(T(\'%Y-%m-%d %H:%M:%S\'))\nresponse.write(\'";\\n    var ajax_error_500 = \\\'\', escape=False)\nresponse.write(T.M(\'An error occured, please [[reload %s]] the page\') % URL(args=request.args, vars=request.get_vars))\nresponse.write("\'\\n    //--></script>\\n", escape=False)\n#response.files.insert(0,URL(\'static\',\'js/jquery.js\'))\n#response.files.insert(1,URL(\'static\',\'css/calendar.css\'))\n#response.files.insert(2,URL(\'static\',\'js/calendar.js\'))\n#response.files.insert(3,URL(\'static\',\'js/web2py.js\'))\nresponse.include_meta()\nresponse.include_files()\nresponse.write(\'\\n\', escape=False)\nresponse.write(\'\\n\\n  \', escape=False)\nis_mobile=request.user_agent().is_mobile\n# using sidebars need to know what sidebar you want to use\nleft_sidebar_enabled = globals().get(\'left_sidebar_enabled\',False)\nright_sidebar_enabled = globals().get(\'right_sidebar_enabled\',False)\nmiddle_columns = {0:\'span12\',1:\'span9\',2:\'span6\'}[\n(left_sidebar_enabled and 1 or 0)+(right_sidebar_enabled and 1 or 0)]\nresponse.write(\'\\n\\n       <link rel="stylesheet" href="http://ajax.googleapis.com/ajax/libs/jqueryui/1.10.3/themes/ui-lightness/jquery-ui.css" type="text/css" media="all" />\\n       <script src="http://ajax.googleapis.com/ajax/libs/jqueryui/1.10.3/jquery-ui.min.js" type="text/javascript"></script>\\n\\n  <noscript><link href="\', escape=False)\nresponse.write(URL(\'static\', \'css/listexpress_bootstrap_nojs.css\'))\nresponse.write(\'" rel="stylesheet" type="text/css" /></noscript>\\n  \', escape=False)\nresponse.write(\'\\n</head>\\n\\n<body>\\n  <!-- Navbar ================================================== -->\\n        <nav class="navbar navbar-inverse navbar-fixed-top" role="navigation">\\n            <div class="container">\\n                <div class="navbar-header">\\n                    <button type="button" class="navbar-toggle" data-toggle="collapse" data-target=".navbar-collapse">\\n                        <span class="sr-only">Toggle navigation</span>\\n                        <span class="icon-bar"></span>\\n                        <span class="icon-bar"></span>\\n                        <span class="icon-bar"></span>\\n                    </button>\\n                    \', escape=False)\nresponse.write(response.logo or \'\')\nresponse.write(\'\\n                </div>\\n                <div class="collapse navbar-collapse navbar-ex1-collapse">\\n                    <ul class="nav navbar-nav navbar-right">\\n                        \', escape=False)\nresponse.write(\'auth\' in globals() and navbar() or \'\')\nresponse.write(\'\\n                    </ul>\\n                    \', escape=False)\nif response.menu:\n    response.write(\'\\n                    \', escape=False)\n    response.write(menu())\n    response.write(\'\\n                    \', escape=False)\n    pass\nresponse.write(\'\\n\\n                 \', escape=False)\nresponse.write(\'     <form class="navbar-form" role="search">\\n        <div style="float:right;" class="input-group">\\n            <input type="text" class="form-control" placeholder="Search" name="srch-term" id="srch-term">\\n            <div class="input-group-btn">\\n                <button class="btn btn-default" type="submit"><i class="glyphicon glyphicon-search"></i></button>\\n            </div>\\n        </div>\\n        </form>\\n\', escape=False)\nresponse.write(search)\nresponse.write(\'\\n\', escape=False)\nresponse.write(\'\\n                </div>\\n            </div>\\n        </nav>\\n   <!-- Masthead ================================================== -->\\n  <div class="container">\\n    <header class="mastheader" id="header">\\n      \', escape=False)\nif response.title:\n    response.write(\'\\n                <h1 class="page-header">\', escape=False)\n    response.write(response.title)\n    response.write(\'\\n                </h1>\\n\\t\', escape=False)\n    pass\nresponse.write(\'\\n    </header>\\n\\n\\n    <section id="main" class="main">\\n        \', escape=False)\nif left_sidebar_enabled:\n    response.write(\'\\n        <div class="span3 left-sidebar">\\n            \', escape=False)\n    response.write(\'\\n            <h3>Left Sidebar</h3>\\n            <p></p>\\n            \', escape=False)\n    response.write(\'\\n        </div>\\n        \', escape=False)\n    pass\nresponse.write(\'\\n\\n        <div class="\', escape=False)\nresponse.write(middle_columns)\nresponse.write(\'">\\n            \', escape=False)\nresponse.write(\'\\n            \', escape=False)\nresponse.write(\'\\n\', escape=False)\nresponse.write(form)\nresponse.write(\'\\n\', escape=False)\nresponse.write(count)\nresponse.write(\'\\n\', escape=False)\nif searchresults:\n    response.write(\'\\n    \', escape=False)\n    response.write(SQLTABLE(searchresults))\n    response.write(\'\\n\', escape=False)\n    pass\nresponse.write(\'\\n            \', escape=False)\nresponse.write(\'\\n        </div>\\n\\n        \', escape=False)\nif right_sidebar_enabled:\n    response.write(\'\\n        <div class="span3">\\n            \', escape=False)\n    response.write(\'\\n            <h3>Right Sidebar</h3>\\n            <p></p>\\n            \', escape=False)\n    response.write(\'\\n        </div>\\n        \', escape=False)\n    pass\nresponse.write(\'\\n    </section><!--/main-->\\n\\n    <!-- Footer ================================================== -->\\n    <div class="row">\\n        <footer class="footer span12" id="footer">\\n            <div class="footer-content">\\n                \', escape=False)\nresponse.write(\' <!-- this is default footer -->\\n                <div class="copyright pull-left">\', escape=False)\nresponse.write(T(\'Copyright\'))\nresponse.write(\' &#169; \', escape=False)\nresponse.write(request.now.year)\nresponse.write(\'</div>\\n                <div id="poweredBy" class="pull-right">\\n                    \', escape=False)\nresponse.write(T(\'Powered by\'))\nresponse.write(\'\\n                    <a href="http://www.web2py.com/">web2py</a>\\n                </div>\\n                \', escape=False)\nresponse.write(\'\\n            </div>\\n        </footer>\\n    </div>\\n\\n  </div> <!-- /container -->\\n\\n  <!-- The javascript =============================================\\n       (Placed at the end of the document so the pages load faster) -->\\n  <script src="\', escape=False)\nresponse.write(URL(\'static\',\'js/bootstrap.js\'))\nresponse.write(\'"></script>\\n  <script src="\', escape=False)\nresponse.write(URL(\'static\',\'js/bootstrap.min.js\'))\nresponse.write(\'"></script>\\n  <script src="\', escape=False)\nresponse.write(URL(\'static\',\'js/web2py-bootstrap3.js\'))\nresponse.write(\'"></script>\\n  <!--[if lt IE 7 ]>\\n      <script src="\', escape=False)\nresponse.write(URL(\'static\',\'js/dd_belatedpng.js\'))\nresponse.write(\'"></script>\\n      <script> DD_belatedPNG.fix(\\\'img, .png_bg\\\'); //fix any <img> or .png_bg background-images </script>\\n      <![endif]-->\\n  \\n  \', escape=False)\nif response.google_analytics_id:\n    response.write(\'\\n  <script src="\', escape=False)\n    response.write(URL(\'static\',\'js/analytics.min.js\'))\n    response.write(\'"></script>\\n  <script type="text/javascript">\\n  analytics.initialize({\\n    \\\'Google Analytics\\\':{trackingId:\\\'\', escape=False)\n    response.write(response.google_analytics_id)\n    response.write("\'} \\n  });</script>\\n  ", escape=False)\n    pass\nresponse.write(\'\\n</body>\\n</html>\\n\\n\', escape=False)'
p7
sS'snapshot'
p8
(dp9
S'exception'
p10
(dp11
S'__hash__'
p12
S"<method-wrapper '__hash__' of exceptions.NameError object>"
p13
sS'__setattr__'
p14
S"<method-wrapper '__setattr__' of exceptions.NameError object>"
p15
sS'__reduce_ex__'
p16
S'<built-in method __reduce_ex__ of exceptions.NameError object>'
p17
sS'__getslice__'
p18
S"<method-wrapper '__getslice__' of exceptions.NameError object>"
p19
sS'__getitem__'
p20
S"<method-wrapper '__getitem__' of exceptions.NameError object>"
p21
sS'__setstate__'
p22
S'<built-in method __setstate__ of exceptions.NameError object>'
p23
sS'args'
p24
S'("name \'search\' is not defined",)'
p25
sS'__reduce__'
p26
S'<built-in method __reduce__ of exceptions.NameError object>'
p27
sS'__str__'
p28
S"<method-wrapper '__str__' of exceptions.NameError object>"
p29
sS'__format__'
p30
S'<built-in method __format__ of exceptions.NameError object>'
p31
sS'__getattribute__'
p32
S"<method-wrapper '__getattribute__' of exceptions.NameError object>"
p33
sS'__class__'
p34
S"<type 'exceptions.NameError'>"
p35
sS'__unicode__'
p36
S'<built-in method __unicode__ of exceptions.NameError object>'
p37
sS'__delattr__'
p38
S"<method-wrapper '__delattr__' of exceptions.NameError object>"
p39
sS'__subclasshook__'
p40
S'<built-in method __subclasshook__ of type object>'
p41
sS'__repr__'
p42
S"<method-wrapper '__repr__' of exceptions.NameError object>"
p43
sS'__dict__'
p44
S'{}'
p45
sS'__sizeof__'
p46
S'<built-in method __sizeof__ of exceptions.NameError object>'
p47
sS'__doc__'
p48
S"'Name not found globally.'"
p49
sS'__init__'
p50
S"<method-wrapper '__init__' of exceptions.NameError object>"
p51
sS'__new__'
p52
S'<built-in method __new__ of type object>'
p53
ssS'evalue'
p54
S"name 'search' is not defined"
p55
sS'request'
p56
cgluon.html
XML_unpickle
p57
(S's\x91^\x00\x00<div><table><tr><td style="font-weight:bold;vertical-align:top;">ajax</td><td style="vertical-align:top;">:</td><td><div>False</div></td></tr><tr><td style="font-weight:bold;vertical-align:top;">application</td><td style="vertical-align:top;">:</td><td><div>adguru</div></td></tr><tr><td style="font-weight:bold;vertical-align:top;">args</td><td style="vertical-align:top;">:</td><td><div><table></table></div></td></tr><tr><td style="font-weight:bold;vertical-align:top;">cid</td><td style="vertical-align:top;">:</td><td><div>None</div></td></tr><tr><td style="font-weight:bold;vertical-align:top;">client</td><td style="vertical-align:top;">:</td><td><div>127.0.0.1</div></td></tr><tr><td style="font-weight:bold;vertical-align:top;">controller</td><td style="vertical-align:top;">:</td><td><div>default</div></td></tr><tr><td style="font-weight:bold;vertical-align:top;">cookies</td><td style="vertical-align:top;">:</td><td><div><table><tr><td style="font-weight:bold;vertical-align:top;">session_id_admin</td><td style="vertical-align:top;">:</td><td><div>127.0.0.1-fd437593-4455-4454-93dc-2d1eb6370d51<table><tr><td style="font-weight:bold;vertical-align:top;">comment</td><td style="vertical-align:top;">:</td><td><div></div></td></tr><tr><td style="font-weight:bold;vertical-align:top;">domain</td><td style="vertical-align:top;">:</td><td><div></div></td></tr><tr><td style="font-weight:bold;vertical-align:top;">expires</td><td style="vertical-align:top;">:</td><td><div></div></td></tr><tr><td style="font-weight:bold;vertical-align:top;">httponly</td><td style="vertical-align:top;">:</td><td><div></div></td></tr><tr><td style="font-weight:bold;vertical-align:top;">max-age</td><td style="vertical-align:top;">:</td><td><div></div></td></tr><tr><td style="font-weight:bold;vertical-align:top;">path</td><td style="vertical-align:top;">:</td><td><div></div></td></tr><tr><td style="font-weight:bold;vertical-align:top;">secure</td><td style="vertical-align:top;">:</td><td><div></div></td></tr><tr><td style="font-weight:bold;vertical-align:top;">version</td><td style="vertical-align:top;">:</td><td><div></div></td></tr></table></div></td></tr><tr><td style="font-weight:bold;vertical-align:top;">session_id_adguru</td><td style="vertical-align:top;">:</td><td><div>127.0.0.1-4297b5cb-1607-44a4-8252-421c8197bc18<table><tr><td style="font-weight:bold;vertical-align:top;">comment</td><td style="vertical-align:top;">:</td><td><div></div></td></tr><tr><td style="font-weight:bold;vertical-align:top;">domain</td><td style="vertical-align:top;">:</td><td><div></div></td></tr><tr><td style="font-weight:bold;vertical-align:top;">expires</td><td style="vertical-align:top;">:</td><td><div></div></td></tr><tr><td style="font-weight:bold;vertical-align:top;">httponly</td><td style="vertical-align:top;">:</td><td><div></div></td></tr><tr><td style="font-weight:bold;vertical-align:top;">max-age</td><td style="vertical-align:top;">:</td><td><div></div></td></tr><tr><td style="font-weight:bold;vertical-align:top;">path</td><td style="vertical-align:top;">:</td><td><div></div></td></tr><tr><td style="font-weight:bold;vertical-align:top;">secure</td><td style="vertical-align:top;">:</td><td><div></div></td></tr><tr><td style="font-weight:bold;vertical-align:top;">version</td><td style="vertical-align:top;">:</td><td><div></div></td></tr></table></div></td></tr><tr><td style="font-weight:bold;vertical-align:top;">session_id_welcome</td><td style="vertical-align:top;">:</td><td><div>127.0.0.1-5c4a2a43-dca8-4067-9d33-1778afc858f2<table><tr><td style="font-weight:bold;vertical-align:top;">comment</td><td style="vertical-align:top;">:</td><td><div></div></td></tr><tr><td style="font-weight:bold;vertical-align:top;">domain</td><td style="vertical-align:top;">:</td><td><div></div></td></tr><tr><td style="font-weight:bold;vertical-align:top;">expires</td><td style="vertical-align:top;">:</td><td><div></div></td></tr><tr><td style="font-weight:bold;vertical-align:top;">httponly</td><td style="vertical-align:top;">:</td><td><div></div></td></tr><tr><td style="font-weight:bold;vertical-align:top;">max-age</td><td style="vertical-align:top;">:</td><td><div></div></td></tr><tr><td style="font-weight:bold;vertical-align:top;">path</td><td style="vertical-align:top;">:</td><td><div></div></td></tr><tr><td style="font-weight:bold;vertical-align:top;">secure</td><td style="vertical-align:top;">:</td><td><div></div></td></tr><tr><td style="font-weight:bold;vertical-align:top;">version</td><td style="vertical-align:top;">:</td><td><div></div></td></tr></table></div></td></tr></table></div></td></tr><tr><td style="font-weight:bold;vertical-align:top;">env</td><td style="vertical-align:top;">:</td><td><div><table><tr><td style="font-weight:bold;vertical-align:top;">HTTP_ACCEPT</td><td style="vertical-align:top;">:</td><td><div>text/html,application/xhtml+xml,application/xml;q=0.9,image/webp,*/*;q=0.8</div></td></tr><tr><td style="font-weight:bold;vertical-align:top;">HTTP_ACCEPT_ENCODING</td><td style="vertical-align:top;">:</td><td><div>gzip,deflate,sdch</div></td></tr><tr><td style="font-weight:bold;vertical-align:top;">HTTP_ACCEPT_LANGUAGE</td><td style="vertical-align:top;">:</td><td><div>en-US,en;q=0.8</div></td></tr><tr><td style="font-weight:bold;vertical-align:top;">HTTP_CACHE_CONTROL</td><td style="vertical-align:top;">:</td><td><div>max-age=0</div></td></tr><tr><td style="font-weight:bold;vertical-align:top;">HTTP_CONNECTION</td><td style="vertical-align:top;">:</td><td><div>keep-alive</div></td></tr><tr><td style="font-weight:bold;vertical-align:top;">HTTP_COOKIE</td><td style="vertical-align:top;">:</td><td><div>_ga=GA1.1.573380557.1400820513; session_id_welcome=127.0.0.1-5c4a2a43-dca8-4067-9d33-1778afc858f2; session_id_adguru=127.0.0.1-4297b5cb-1607-44a4-8252-421c8197bc18; session_id_admin=127.0.0.1-fd437593-4455-4454-93dc-2d1eb6370d51</div></td></tr><tr><td style="font-weight:bold;vertical-align:top;">HTTP_HOST</td><td style="vertical-align:top;">:</td><td><div>127.0.0.1:8000</div></td></tr><tr><td style="font-weight:bold;vertical-align:top;">HTTP_REFERER</td><td style="vertical-align:top;">:</td><td><div>http://127.0.0.1:8000/adguru/default?srch-term=sep</div></td></tr><tr><td style="font-weight:bold;vertical-align:top;">HTTP_USER_AGENT</td><td style="vertical-align:top;">:</td><td><div>Mozilla/5.0 (Macintosh; Intel Mac OS X 10_9_1) AppleWebKit/537.36 (KHTML, like Gecko) Chrome/36.0.1985.143 Safari/537.36</div></td></tr><tr><td style="font-weight:bold;vertical-align:top;">PATH_INFO</td><td style="vertical-align:top;">:</td><td><div>/adguru/default</div></td></tr><tr><td style="font-weight:bold;vertical-align:top;">QUERY_STRING</td><td style="vertical-align:top;">:</td><td><div>srch-term=sep</div></td></tr><tr><td style="font-weight:bold;vertical-align:top;">REMOTE_ADDR</td><td style="vertical-align:top;">:</td><td><div>127.0.0.1</div></td></tr><tr><td style="font-weight:bold;vertical-align:top;">REMOTE_PORT</td><td style="vertical-align:top;">:</td><td><div>55437</div></td></tr><tr><td style="font-weight:bold;vertical-align:top;">REQUEST_METHOD</td><td style="vertical-align:top;">:</td><td><div>GET</div></td></tr><tr><td style="font-weight:bold;vertical-align:top;">SCRIPT_NAME</td><td style="vertical-align:top;">:</td><td><div></div></td></tr><tr><td style="font-weight:bold;vertical-align:top;">SERVER_NAME</td><td style="vertical-align:top;">:</td><td><div>Sepehrs-MacBook-Air.local</div></td></tr><tr><td style="font-weight:bold;vertical-align:top;">SERVER_PORT</td><td style="vertical-align:top;">:</td><td><div>8000</div></td></tr><tr><td style="font-weight:bold;vertical-align:top;">SERVER_PROTOCOL</td><td style="vertical-align:top;">:</td><td><div>HTTP/1.1</div></td></tr><tr><td style="font-weight:bold;vertical-align:top;">SERVER_SOFTWARE</td><td style="vertical-align:top;">:</td><td><div>Rocket 1.2.6</div></td></tr><tr><td style="font-weight:bold;vertical-align:top;">app_folders</td><td style="vertical-align:top;">:</td><td><div>set([&#x27;/Users/sepehrtaheri/PycharmProjects/adguru/web2py/applications/adguru/&#x27;, &#x27;/Users/sepehrtaheri/PycharmProjects/adguru/web2py/applications/admin/&#x27;, &#x27;/Users/sepehrtaheri/PycharmProjects/adguru/web2py/applications/welcome/&#x27;])</div></td></tr><tr><td style="font-weight:bold;vertical-align:top;">applications_parent</td><td style="vertical-align:top;">:</td><td><div>/Users/sepehrtaheri/PycharmProjects/adguru/web2py</div></td></tr><tr><td style="font-weight:bold;vertical-align:top;">cmd_args</td><td style="vertical-align:top;">:</td><td><div><table></table></div></td></tr><tr><td style="font-weight:bold;vertical-align:top;">cmd_options</td><td style="vertical-align:top;">:</td><td><div>&lt;Values at 0x109ccc098: {&#x27;verbose&#x27;: False, &#x27;ip&#x27;: &#x27;127.0.0.1&#x27;, &#x27;debuglevel&#x27;: 30, &#x27;with_scheduler&#x27;: False, &#x27;ips&#x27;: [&#x27;192.168.1.84&#x27;, &#x27;fe80::60c:ceff:fed3:73ae%en0&#x27;], &#x27;shutdown_timeout&#x27;: 5, &#x27;taskbar&#x27;: False, &#x27;with_coverage&#x27;: False, &#x27;port&#x27;: 8000, &#x27;maxthreads&#x27;: None, &#x27;softcron&#x27;: False, &#x27;server_name&#x27;: &#x27;Sepehrs-MacBook-Air.local&#x27;, &#x27;bpython&#x27;: False, &#x27;nogui&#x27;: False, &#x27;pid_filename&#x27;: &#x27;httpserver.pid&#x27;, &#x27;extcron&#x27;: False, &#x27;runcron&#x27;: False, &#x27;run_system_tests&#x27;: False, &#x27;test&#x27;: None, &#x27;folder&#x27;: &#x27;/Users/sepehrtaheri/PycharmProjects/adguru/web2py&#x27;, &#x27;config&#x27;: &#x27;&#x27;, &#x27;minthreads&#x27;: None, &#x27;shell&#x27;: None, &#x27;run&#x27;: &#x27;&#x27;, &#x27;log_filename&#x27;: &#x27;httpserver.log&#x27;, &#x27;profiler_dir&#x27;: None, &#x27;args&#x27;: [&#x27;&#x27;], &#x27;socket_timeout&#x27;: 5, &#x27;ssl_ca_certificate&#x27;: None, &#x27;scheduler&#x27;: None, &#x27;interfaces&#x27;: None, &#x27;ssl_private_key&#x27;: &#x27;&#x27;, &#x27;scheduler_groups&#x27;: None, &#x27;password&#x27;: &#x27;&lt;ask&gt;&#x27;, &#x27;request_queue_size&#x27;: 5, &#x27;ssl_certificate&#x27;: &#x27;&#x27;, &#x27;cronjob&#x27;: False, &#x27;numthreads&#x27;: None, &#x27;quiet&#x27;: False, &#x27;import_models&#x27;: False, &#x27;timeout&#x27;: 10, &#x27;plain&#x27;: False, &#x27;nobanner&#x27;: False}&gt;</div></td></tr><tr><td style="font-weight:bold;vertical-align:top;">db_sessions</td><td style="vertical-align:top;">:</td><td><div>set([])</div></td></tr><tr><td style="font-weight:bold;vertical-align:top;">debugging</td><td style="vertical-align:top;">:</td><td><div>False</div></td></tr><tr><td style="font-weight:bold;vertical-align:top;">gluon_parent</td><td style="vertical-align:top;">:</td><td><div>/Users/sepehrtaheri/PycharmProjects/adguru/web2py</div></td></tr><tr><td style="font-weight:bold;vertical-align:top;">http_accept</td><td style="vertical-align:top;">:</td><td><div>text/html,application/xhtml+xml,application/xml;q=0.9,image/webp,*/*;q=0.8</div></td></tr><tr><td style="font-weight:bold;vertical-align:top;">http_accept_encoding</td><td style="vertical-align:top;">:</td><td><div>gzip,deflate,sdch</div></td></tr><tr><td style="font-weight:bold;vertical-align:top;">http_accept_language</td><td style="vertical-align:top;">:</td><td><div>en-US,en;q=0.8</div></td></tr><tr><td style="font-weight:bold;vertical-align:top;">http_cache_control</td><td style="vertical-align:top;">:</td><td><div>max-age=0</div></td></tr><tr><td style="font-weight:bold;vertical-align:top;">http_connection</td><td style="vertical-align:top;">:</td><td><div>keep-alive</div></td></tr><tr><td style="font-weight:bold;vertical-align:top;">http_cookie</td><td style="vertical-align:top;">:</td><td><div>_ga=GA1.1.573380557.1400820513; session_id_welcome=127.0.0.1-5c4a2a43-dca8-4067-9d33-1778afc858f2; session_id_adguru=127.0.0.1-4297b5cb-1607-44a4-8252-421c8197bc18; session_id_admin=127.0.0.1-fd437593-4455-4454-93dc-2d1eb6370d51</div></td></tr><tr><td style="font-weight:bold;vertical-align:top;">http_host</td><td style="vertical-align:top;">:</td><td><div>127.0.0.1:8000</div></td></tr><tr><td style="font-weight:bold;vertical-align:top;">http_referer</td><td style="vertical-align:top;">:</td><td><div>http://127.0.0.1:8000/adguru/default?srch-term=sep</div></td></tr><tr><td style="font-weight:bold;vertical-align:top;">http_user_agent</td><td style="vertical-align:top;">:</td><td><div>Mozilla/5.0 (Macintosh; Intel Mac OS X 10_9_1) AppleWebKit/537.36 (KHTML, like Gecko) Chrome/36.0.1985.143 Safari/537.36</div></td></tr><tr><td style="font-weight:bold;vertical-align:top;">is_jython</td><td style="vertical-align:top;">:</td><td><div>False</div></td></tr><tr><td style="font-weight:bold;vertical-align:top;">is_pypy</td><td style="vertical-align:top;">:</td><td><div>False</div></td></tr><tr><td style="font-weight:bold;vertical-align:top;">is_source</td><td style="vertical-align:top;">:</td><td><div>True</div></td></tr><tr><td style="font-weight:bold;vertical-align:top;">local_hosts</td><td style="vertical-align:top;">:</td><td><div><table><tr><td><div>192.168.1.84</div></td></tr><tr><td><div>::ffff:127.0.0.1</div></td></tr><tr><td><div>fe80::60c:ceff:fed3:73ae%en0</div></td></tr><tr><td><div>::1</div></td></tr><tr><td><div>Sepehrs-MacBook-Air.local</div></td></tr><tr><td><div>127.0.0.1</div></td></tr></table></div></td></tr><tr><td style="font-weight:bold;vertical-align:top;">path_info</td><td style="vertical-align:top;">:</td><td><div>/adguru/default</div></td></tr><tr><td style="font-weight:bold;vertical-align:top;">query_string</td><td style="vertical-align:top;">:</td><td><div>srch-term=sep</div></td></tr><tr><td style="font-weight:bold;vertical-align:top;">remote_addr</td><td style="vertical-align:top;">:</td><td><div>127.0.0.1</div></td></tr><tr><td style="font-weight:bold;vertical-align:top;">remote_port</td><td style="vertical-align:top;">:</td><td><div>55437</div></td></tr><tr><td style="font-weight:bold;vertical-align:top;">request_method</td><td style="vertical-align:top;">:</td><td><div>GET</div></td></tr><tr><td style="font-weight:bold;vertical-align:top;">request_uri</td><td style="vertical-align:top;">:</td><td><div>/adguru/default?srch-term=sep</div></td></tr><tr><td style="font-weight:bold;vertical-align:top;">script_name</td><td style="vertical-align:top;">:</td><td><div></div></td></tr><tr><td style="font-weight:bold;vertical-align:top;">server_name</td><td style="vertical-align:top;">:</td><td><div>Sepehrs-MacBook-Air.local</div></td></tr><tr><td style="font-weight:bold;vertical-align:top;">server_port</td><td style="vertical-align:top;">:</td><td><div>8000</div></td></tr><tr><td style="font-weight:bold;vertical-align:top;">server_protocol</td><td style="vertical-align:top;">:</td><td><div>HTTP/1.1</div></td></tr><tr><td style="font-weight:bold;vertical-align:top;">server_software</td><td style="vertical-align:top;">:</td><td><div>Rocket 1.2.6</div></td></tr><tr><td style="font-weight:bold;vertical-align:top;">web2py_path</td><td style="vertical-align:top;">:</td><td><div>/Users/sepehrtaheri/PycharmProjects/adguru/web2py</div></td></tr><tr><td style="font-weight:bold;vertical-align:top;">web2py_version</td><td style="vertical-align:top;">:</td><td><div>2.9.5-stable+timestamp.2014.03.16.02.35.39</div></td></tr><tr><td style="font-weight:bold;vertical-align:top;">wsgi.errors</td><td style="vertical-align:top;">:</td><td><div>&lt;open file &#x27;&lt;stderr&gt;&#x27;, mode &#x27;w&#x27; at 0x108dfd1e0&gt;</div></td></tr><tr><td style="font-weight:bold;vertical-align:top;">wsgi.file_wrapper</td><td style="vertical-align:top;">:</td><td><div>&lt;class wsgiref.util.FileWrapper at 0x109c74050&gt;</div></td></tr><tr><td style="font-weight:bold;vertical-align:top;">wsgi.input</td><td style="vertical-align:top;">:</td><td><div>&lt;socket._fileobject object at 0x10f4c3250&gt;</div></td></tr><tr><td style="font-weight:bold;vertical-align:top;">wsgi.multiprocess</td><td style="vertical-align:top;">:</td><td><div>False</div></td></tr><tr><td style="font-weight:bold;vertical-align:top;">wsgi.multithread</td><td style="vertical-align:top;">:</td><td><div>True</div></td></tr><tr><td style="font-weight:bold;vertical-align:top;">wsgi.run_once</td><td style="vertical-align:top;">:</td><td><div>False</div></td></tr><tr><td style="font-weight:bold;vertical-align:top;">wsgi.url_scheme</td><td style="vertical-align:top;">:</td><td><div>http</div></td></tr><tr><td style="font-weight:bold;vertical-align:top;">wsgi.version</td><td style="vertical-align:top;">:</td><td><div><table><tr><td><div>1</div></td></tr><tr><td><div>0</div></td></tr></table></div></td></tr><tr><td style="font-weight:bold;vertical-align:top;">wsgi_errors</td><td style="vertical-align:top;">:</td><td><div>&lt;open file &#x27;&lt;stderr&gt;&#x27;, mode &#x27;w&#x27; at 0x108dfd1e0&gt;</div></td></tr><tr><td style="font-weight:bold;vertical-align:top;">wsgi_file_wrapper</td><td style="vertical-align:top;">:</td><td><div>&lt;class wsgiref.util.FileWrapper at 0x109c74050&gt;</div></td></tr><tr><td style="font-weight:bold;vertical-align:top;">wsgi_input</td><td style="vertical-align:top;">:</td><td><div>&lt;socket._fileobject object at 0x10f4c3250&gt;</div></td></tr><tr><td style="font-weight:bold;vertical-align:top;">wsgi_multiprocess</td><td style="vertical-align:top;">:</td><td><div>False</div></td></tr><tr><td style="font-weight:bold;vertical-align:top;">wsgi_multithread</td><td style="vertical-align:top;">:</td><td><div>True</div></td></tr><tr><td style="font-weight:bold;vertical-align:top;">wsgi_run_once</td><td style="vertical-align:top;">:</td><td><div>False</div></td></tr><tr><td style="font-weight:bold;vertical-align:top;">wsgi_url_scheme</td><td style="vertical-align:top;">:</td><td><div>http</div></td></tr><tr><td style="font-weight:bold;vertical-align:top;">wsgi_version</td><td style="vertical-align:top;">:</td><td><div><table><tr><td><div>1</div></td></tr><tr><td><div>0</div></td></tr></table></div></td></tr></table></div></td></tr><tr><td style="font-weight:bold;vertical-align:top;">extension</td><td style="vertical-align:top;">:</td><td><div>html</div></td></tr><tr><td style="font-weight:bold;vertical-align:top;">folder</td><td style="vertical-align:top;">:</td><td><div>/Users/sepehrtaheri/PycharmProjects/adguru/web2py/applications/adguru/</div></td></tr><tr><td style="font-weight:bold;vertical-align:top;">function</td><td style="vertical-align:top;">:</td><td><div>index</div></td></tr><tr><td style="font-weight:bold;vertical-align:top;">global_settings</td><td style="vertical-align:top;">:</td><td><div><table><tr><td style="font-weight:bold;vertical-align:top;">app_folders</td><td style="vertical-align:top;">:</td><td><div>set([&#x27;/Users/sepehrtaheri/PycharmProjects/adguru/web2py/applications/adguru/&#x27;, &#x27;/Users/sepehrtaheri/PycharmProjects/adguru/web2py/applications/admin/&#x27;, &#x27;/Users/sepehrtaheri/PycharmProjects/adguru/web2py/applications/welcome/&#x27;])</div></td></tr><tr><td style="font-weight:bold;vertical-align:top;">applications_parent</td><td style="vertical-align:top;">:</td><td><div>/Users/sepehrtaheri/PycharmProjects/adguru/web2py</div></td></tr><tr><td style="font-weight:bold;vertical-align:top;">cmd_args</td><td style="vertical-align:top;">:</td><td><div><table></table></div></td></tr><tr><td style="font-weight:bold;vertical-align:top;">cmd_options</td><td style="vertical-align:top;">:</td><td><div>&lt;Values at 0x109ccc098: {&#x27;verbose&#x27;: False, &#x27;ip&#x27;: &#x27;127.0.0.1&#x27;, &#x27;debuglevel&#x27;: 30, &#x27;with_scheduler&#x27;: False, &#x27;ips&#x27;: [&#x27;192.168.1.84&#x27;, &#x27;fe80::60c:ceff:fed3:73ae%en0&#x27;], &#x27;shutdown_timeout&#x27;: 5, &#x27;taskbar&#x27;: False, &#x27;with_coverage&#x27;: False, &#x27;port&#x27;: 8000, &#x27;maxthreads&#x27;: None, &#x27;softcron&#x27;: False, &#x27;server_name&#x27;: &#x27;Sepehrs-MacBook-Air.local&#x27;, &#x27;bpython&#x27;: False, &#x27;nogui&#x27;: False, &#x27;pid_filename&#x27;: &#x27;httpserver.pid&#x27;, &#x27;extcron&#x27;: False, &#x27;runcron&#x27;: False, &#x27;run_system_tests&#x27;: False, &#x27;test&#x27;: None, &#x27;folder&#x27;: &#x27;/Users/sepehrtaheri/PycharmProjects/adguru/web2py&#x27;, &#x27;config&#x27;: &#x27;&#x27;, &#x27;minthreads&#x27;: None, &#x27;shell&#x27;: None, &#x27;run&#x27;: &#x27;&#x27;, &#x27;log_filename&#x27;: &#x27;httpserver.log&#x27;, &#x27;profiler_dir&#x27;: None, &#x27;args&#x27;: [&#x27;&#x27;], &#x27;socket_timeout&#x27;: 5, &#x27;ssl_ca_certificate&#x27;: None, &#x27;scheduler&#x27;: None, &#x27;interfaces&#x27;: None, &#x27;ssl_private_key&#x27;: &#x27;&#x27;, &#x27;scheduler_groups&#x27;: None, &#x27;password&#x27;: &#x27;&lt;ask&gt;&#x27;, &#x27;request_queue_size&#x27;: 5, &#x27;ssl_certificate&#x27;: &#x27;&#x27;, &#x27;cronjob&#x27;: False, &#x27;numthreads&#x27;: None, &#x27;quiet&#x27;: False, &#x27;import_models&#x27;: False, &#x27;timeout&#x27;: 10, &#x27;plain&#x27;: False, &#x27;nobanner&#x27;: False}&gt;</div></td></tr><tr><td style="font-weight:bold;vertical-align:top;">db_sessions</td><td style="vertical-align:top;">:</td><td><div>set([])</div></td></tr><tr><td style="font-weight:bold;vertical-align:top;">debugging</td><td style="vertical-align:top;">:</td><td><div>False</div></td></tr><tr><td style="font-weight:bold;vertical-align:top;">gluon_parent</td><td style="vertical-align:top;">:</td><td><div>/Users/sepehrtaheri/PycharmProjects/adguru/web2py</div></td></tr><tr><td style="font-weight:bold;vertical-align:top;">is_jython</td><td style="vertical-align:top;">:</td><td><div>False</div></td></tr><tr><td style="font-weight:bold;vertical-align:top;">is_pypy</td><td style="vertical-align:top;">:</td><td><div>False</div></td></tr><tr><td style="font-weight:bold;vertical-align:top;">is_source</td><td style="vertical-align:top;">:</td><td><div>True</div></td></tr><tr><td style="font-weight:bold;vertical-align:top;">local_hosts</td><td style="vertical-align:top;">:</td><td><div><table><tr><td><div>192.168.1.84</div></td></tr><tr><td><div>::ffff:127.0.0.1</div></td></tr><tr><td><div>fe80::60c:ceff:fed3:73ae%en0</div></td></tr><tr><td><div>::1</div></td></tr><tr><td><div>Sepehrs-MacBook-Air.local</div></td></tr><tr><td><div>127.0.0.1</div></td></tr></table></div></td></tr><tr><td style="font-weight:bold;vertical-align:top;">web2py_version</td><td style="vertical-align:top;">:</td><td><div>2.9.5-stable+timestamp.2014.03.16.02.35.39</div></td></tr></table></div></td></tr><tr><td style="font-weight:bold;vertical-align:top;">is_https</td><td style="vertical-align:top;">:</td><td><div>False</div></td></tr><tr><td style="font-weight:bold;vertical-align:top;">is_local</td><td style="vertical-align:top;">:</td><td><div>True</div></td></tr><tr><td style="font-weight:bold;vertical-align:top;">is_restful</td><td style="vertical-align:top;">:</td><td><div>False</div></td></tr><tr><td style="font-weight:bold;vertical-align:top;">now</td><td style="vertical-align:top;">:</td><td><div>datetime.datetime(2014, 8, 17, 13, 54, 34, 73059)</div></td></tr><tr><td style="font-weight:bold;vertical-align:top;">raw_args</td><td style="vertical-align:top;">:</td><td><div></div></td></tr><tr><td style="font-weight:bold;vertical-align:top;">raw_extension</td><td style="vertical-align:top;">:</td><td><div>None</div></td></tr><tr><td style="font-weight:bold;vertical-align:top;">url</td><td style="vertical-align:top;">:</td><td><div>/adguru/default</div></td></tr><tr><td style="font-weight:bold;vertical-align:top;">utcnow</td><td style="vertical-align:top;">:</td><td><div>datetime.datetime(2014, 8, 17, 20, 54, 34, 73073)</div></td></tr><tr><td style="font-weight:bold;vertical-align:top;">uuid</td><td style="vertical-align:top;">:</td><td><div>adguru/127.0.0.1.2014-08-17.13-54-34.c43e1250-0806-43e7-9335-91c4943eec8b</div></td></tr><tr><td style="font-weight:bold;vertical-align:top;">wsgi</td><td style="vertical-align:top;">:</td><td><div>&lt;gluon.main.LazyWSGI object at 0x10f4fa410&gt;</div></td></tr></table></div>'
tRp58
sS'frames'
p59
(lp60
(dp61
S'file'
p62
S'/Users/sepehrtaheri/PycharmProjects/adguru/web2py/gluon/restricted.py'
p63
sS'dump'
p64
(dp65
S'environment'
p66
S"{'A': <class 'gluon.html.A'>, 'ANY_OF': <class 'gluon.validators.ANY_OF'>, 'Auth': <class 'gluon.tools.Auth'>, 'B': <class 'gluon.html.B'>, 'BEAUTIFY': <class 'gluon.html.BEAUTIFY'>, 'BODY': <class 'gluon.html.BODY'>, 'BR': <class 'gluon.html.BR'>, 'BUTTON': <class 'gluon.html.BUTTON'>, 'CAT': <class 'gluon.html.CAT'>, 'CENTER': <class 'gluon.html.CENTER'>, ...}"
p67
sS'ccode'
p68
S'<code object <module> at 0x10f4233b0, file "/Use...temAlpha/views/default/searchposts.html", line 1>'
p69
ssS'lnum'
p70
I220
sS'lines'
p71
(dp72
I224
S'        # do not encapsulate (obfuscate) the original RestrictedError'
p73
sI215
S'    try:'
p74
sI216
S'        if isinstance(code, types.CodeType):'
p75
sI217
S'            ccode = code'
p76
sI218
S'        else:'
p77
sI219
S'            ccode = compile2(code, layer)'
p78
sI220
S'        exec ccode in environment'
p79
sI221
S'    except HTTP:'
p80
sI222
S'        raise'
p81
sI223
S'    except RestrictedError:'
p82
ssS'call'
p83
S'(code=r"response.write(\'<!--[if HTML5]><![endif]-->\\n<!D...nse.write(\'\\n</body>\\n</html>\\n\\n\', escape=False)", environment={\'A\': <class \'gluon.html.A\'>, \'ANY_OF\': <class \'gluon.validators.ANY_OF\'>, \'Auth\': <class \'gluon.tools.Auth\'>, \'B\': <class \'gluon.html.B\'>, \'BEAUTIFY\': <class \'gluon.html.BEAUTIFY\'>, \'BODY\': <class \'gluon.html.BODY\'>, \'BR\': <class \'gluon.html.BR\'>, \'BUTTON\': <class \'gluon.html.BUTTON\'>, \'CAT\': <class \'gluon.html.CAT\'>, \'CENTER\': <class \'gluon.html.CENTER\'>, ...}, layer=\'/Users/sepehrtaheri/PycharmProjects/adguru/...ations/adguru/views/default/searchposts.html\')'
p84
sS'func'
p85
S'restricted'
p86
sa(dp87
g62
S'/Users/sepehrtaheri/PycharmProjects/adguru/web2py/applications/adguru/views/default/searchposts.html'
p88
sg64
(dp89
sg70
I71
sg71
(dp90
I64
S'if response.menu:'
p91
sI65
S"    response.write('\\n                    ', escape=False)"
p92
sI66
S'    response.write(menu())'
p93
sI67
S"    response.write('\\n                    ', escape=False)"
p94
sI68
S'    pass'
p95
sI69
S"response.write('\\n\\n                 ', escape=False)"
p96
sI70
S'response.write(\'     <form class="navbar-form" role="search">\\n        <div style="float:right;" class="input-group">\\n            <input type="text" class="form-control" placeholder="Search" name="srch-term" id="srch-term">\\n            <div class="input-group-btn">\\n                <button class="btn btn-default" type="submit"><i class="glyphicon glyphicon-search"></i></button>\\n            </div>\\n        </div>\\n        </form>\\n\', escape=False)'
p97
sI71
S'response.write(search)'
p98
sI72
S"response.write('\\n', escape=False)"
p99
sI73
S'response.write(\'\\n                </div>\\n            </div>\\n        </nav>\\n   <!-- Masthead ================================================== -->\\n  <div class="container">\\n    <header class="mastheader" id="header">\\n      \', escape=False)'
p100
sI74
S'if response.title:'
p101
sI75
S'    response.write(\'\\n                <h1 class="page-header">\', escape=False)'
p102
sI76
S'    response.write(response.title)'
p103
sI77
S"    response.write('\\n                </h1>\\n\\t', escape=False)"
p104
sI78
S'    pass'
p105
sI79
S'response.write(\'\\n    </header>\\n\\n\\n    <section id="main" class="main">\\n        \', escape=False)'
p106
sI80
S'if left_sidebar_enabled:'
p107
sI81
S'    response.write(\'\\n        <div class="span3 left-sidebar">\\n            \', escape=False)'
p108
sI62
S"response.write('auth' in globals() and navbar() or '')"
p109
sI63
S"response.write('\\n                    </ul>\\n                    ', escape=False)"
p110
ssg83
S'()'
p111
sg85
S'<module>'
p112
sasS'pyver'
p113
S'Python 2.7.5: /System/Library/Frameworks/Python.framework/Versions/2.7/Resources/Python.app/Contents/MacOS/Python (prefix: /System/Library/Frameworks/Python.framework/Versions/2.7)'
p114
sS'session'
p115
g57
(S's\x98\x00\x00\x00<div><table><tr><td style="font-weight:bold;vertical-align:top;">flash</td><td style="vertical-align:top;">:</td><td><div></div></td></tr></table></div>'
tRp116
sS'etype'
p117
S"<type 'exceptions.NameError'>"
p118
sS'date'
p119
S'Sun Aug 17 13:54:35 2014'
p120
sS'response'
p121
g57
(S's/#\x00\x00<div><table><tr><td style="font-weight:bold;vertical-align:top;">body</td><td style="vertical-align:top;">:</td><td><div>&lt;cStringIO.StringO object at 0x112c18d88&gt;</div></td></tr><tr><td style="font-weight:bold;vertical-align:top;">cookies</td><td style="vertical-align:top;">:</td><td><div><table><tr><td style="font-weight:bold;vertical-align:top;">session_id_adguru</td><td style="vertical-align:top;">:</td><td><div>127.0.0.1-4297b5cb-1607-44a4-8252-421c8197bc18<table><tr><td style="font-weight:bold;vertical-align:top;">comment</td><td style="vertical-align:top;">:</td><td><div></div></td></tr><tr><td style="font-weight:bold;vertical-align:top;">domain</td><td style="vertical-align:top;">:</td><td><div></div></td></tr><tr><td style="font-weight:bold;vertical-align:top;">expires</td><td style="vertical-align:top;">:</td><td><div></div></td></tr><tr><td style="font-weight:bold;vertical-align:top;">httponly</td><td style="vertical-align:top;">:</td><td><div></div></td></tr><tr><td style="font-weight:bold;vertical-align:top;">max-age</td><td style="vertical-align:top;">:</td><td><div></div></td></tr><tr><td style="font-weight:bold;vertical-align:top;">path</td><td style="vertical-align:top;">:</td><td><div>/</div></td></tr><tr><td style="font-weight:bold;vertical-align:top;">secure</td><td style="vertical-align:top;">:</td><td><div></div></td></tr><tr><td style="font-weight:bold;vertical-align:top;">version</td><td style="vertical-align:top;">:</td><td><div></div></td></tr></table></div></td></tr></table></div></td></tr><tr><td style="font-weight:bold;vertical-align:top;">delimiters</td><td style="vertical-align:top;">:</td><td><div><table><tr><td><div>{{</div></td></tr><tr><td><div>}}</div></td></tr></table></div></td></tr><tr><td style="font-weight:bold;vertical-align:top;">files</td><td style="vertical-align:top;">:</td><td><div><table><tr><td><div>/adguru/static/css/bootstrap.css</div></td></tr><tr><td><div>/adguru/static/css/bootstrap.min.css</div></td></tr><tr><td><div>/adguru/static/css/web2py-bootstrap3.css</div></td></tr></table></div></td></tr><tr><td style="font-weight:bold;vertical-align:top;">flash</td><td style="vertical-align:top;">:</td><td><div>search submitted</div></td></tr><tr><td style="font-weight:bold;vertical-align:top;">generic_patterns</td><td style="vertical-align:top;">:</td><td><div><table><tr><td><div>*</div></td></tr></table></div></td></tr><tr><td style="font-weight:bold;vertical-align:top;">google_analytics_id</td><td style="vertical-align:top;">:</td><td><div>None</div></td></tr><tr><td style="font-weight:bold;vertical-align:top;">headers</td><td style="vertical-align:top;">:</td><td><div><table><tr><td style="font-weight:bold;vertical-align:top;">X-Powered-By</td><td style="vertical-align:top;">:</td><td><div>web2py</div></td></tr></table></div></td></tr><tr><td style="font-weight:bold;vertical-align:top;">logo</td><td style="vertical-align:top;">:</td><td><div><a class="navbar-brand" href="/adguru/default/index"><b>adguru</b></a></div></td></tr><tr><td style="font-weight:bold;vertical-align:top;">menu</td><td style="vertical-align:top;">:</td><td><div><table><tr><td><div><table><tr><td><div>Post</div></td></tr><tr><td><div>True</div></td></tr><tr><td><div>/adguru/default/post</div></td></tr></table></div></td></tr><tr><td><div><table><tr><td><div>Search</div></td></tr><tr><td><div>True</div></td></tr><tr><td><div>/adguru/default/searchposts</div></td></tr></table></div></td></tr><tr><td><div><table><tr><td><div><span class="highlighted">web2py</span></div></td></tr><tr><td><div>False</div></td></tr><tr><td><div>http://web2py.com</div></td></tr><tr><td><div><table><tr><td><div><table><tr><td><div>This App</div></td></tr><tr><td><div>False</div></td></tr><tr><td><div>/admin/default/design/adguru</div></td></tr><tr><td><div>[(&lt;lazyT &#x27;Controller&#x27;&gt;, False, &#x27;/admin/default/edit/adguru/controllers/default.py&#x27;), (&lt;lazyT &#x27;View&#x27;&gt;, False, &#x27;/admin/default/edit/adguru/views/default/index.html&#x27;), (&lt;lazyT &#x27;Layout&#x27;&gt;, False, &#x27;/admin/default/edit/adguru/views/layout.html&#x27;), (&lt;lazyT &#x27;Stylesheet&#x27;&gt;, False, &#x27;/admin/default/edit/adguru/static/css/web2py.css&#x27;), (&lt;lazyT &#x27;DB Model&#x27;&gt;, False, &#x27;/admin/default/edit/adguru/models/db.py&#x27;), (&lt;lazyT &#x27;Menu Model&#x27;&gt;, False, &#x27;/admin/default/edit/adguru/models/menu.py&#x27;), (&lt;lazyT &#x27;Database&#x27;&gt;, False, &#x27;/adguru/appadmin/index&#x27;), (&lt;lazyT &#x27;Errors&#x27;&gt;, False, &#x27;/admin/default/errors/adguru&#x27;), (&lt;lazyT &#x27;About&#x27;&gt;, False, &#x27;/admin/default/about/adguru&#x27;)]</div></td></tr></table></div></td></tr></table></div></td></tr></table></div></td></tr></table></div></td></tr><tr><td style="font-weight:bold;vertical-align:top;">meta</td><td style="vertical-align:top;">:</td><td><div><table><tr><td style="font-weight:bold;vertical-align:top;">author</td><td style="vertical-align:top;">:</td><td><div>Sep Taheri &lt;admin@sepehr.ca&gt;</div></td></tr><tr><td style="font-weight:bold;vertical-align:top;">generator</td><td style="vertical-align:top;">:</td><td><div>Web2py Web Framework</div></td></tr><tr><td style="font-weight:bold;vertical-align:top;">keywords</td><td style="vertical-align:top;">:</td><td><div>AD POST SELL CLASSIFIEDS BUY CRAIGSLIST CRIAGS KIJIJI</div></td></tr></table></div></td></tr><tr><td style="font-weight:bold;vertical-align:top;">models_to_run</td><td style="vertical-align:top;">:</td><td><div><table><tr><td><div>^\\w+\\.py$</div></td></tr><tr><td><div>^default/\\w+\\.py$</div></td></tr><tr><td><div>^default/index/\\w+\\.py$</div></td></tr></table></div></td></tr><tr><td style="font-weight:bold;vertical-align:top;">postprocessing</td><td style="vertical-align:top;">:</td><td><div><table></table></div></td></tr><tr><td style="font-weight:bold;vertical-align:top;">session_client</td><td style="vertical-align:top;">:</td><td><div>127.0.0.1</div></td></tr><tr><td style="font-weight:bold;vertical-align:top;">session_cookie_compression_level</td><td style="vertical-align:top;">:</td><td><div>None</div></td></tr><tr><td style="font-weight:bold;vertical-align:top;">session_cookie_expires</td><td style="vertical-align:top;">:</td><td><div>None</div></td></tr><tr><td style="font-weight:bold;vertical-align:top;">session_cookie_key</td><td style="vertical-align:top;">:</td><td><div>None</div></td></tr><tr><td style="font-weight:bold;vertical-align:top;">session_data_name</td><td style="vertical-align:top;">:</td><td><div>session_data_adguru</div></td></tr><tr><td style="font-weight:bold;vertical-align:top;">session_file</td><td style="vertical-align:top;">:</td><td><div>&lt;open file &#x27;/Users/sepehrtaheri/PycharmProjects/adguru/web2py/applications/adguru/sessions/127.0.0.1-4297b5cb-1607-44a4-8252-421c8197bc18&#x27;, mode &#x27;rb+&#x27; at 0x112be69c0&gt;</div></td></tr><tr><td style="font-weight:bold;vertical-align:top;">session_filename</td><td style="vertical-align:top;">:</td><td><div>/Users/sepehrtaheri/PycharmProjects/adguru/web2py/applications/adguru/sessions/127.0.0.1-4297b5cb-1607-44a4-8252-421c8197bc18</div></td></tr><tr><td style="font-weight:bold;vertical-align:top;">session_hash</td><td style="vertical-align:top;">:</td><td><div>d53c227b859983e6864445206b79d4b7</div></td></tr><tr><td style="font-weight:bold;vertical-align:top;">session_id</td><td style="vertical-align:top;">:</td><td><div>127.0.0.1-4297b5cb-1607-44a4-8252-421c8197bc18</div></td></tr><tr><td style="font-weight:bold;vertical-align:top;">session_id_name</td><td style="vertical-align:top;">:</td><td><div>session_id_adguru</div></td></tr><tr><td style="font-weight:bold;vertical-align:top;">session_locked</td><td style="vertical-align:top;">:</td><td><div>True</div></td></tr><tr><td style="font-weight:bold;vertical-align:top;">session_masterapp</td><td style="vertical-align:top;">:</td><td><div>adguru</div></td></tr><tr><td style="font-weight:bold;vertical-align:top;">session_new</td><td style="vertical-align:top;">:</td><td><div>False</div></td></tr><tr><td style="font-weight:bold;vertical-align:top;">session_storage_type</td><td style="vertical-align:top;">:</td><td><div>file</div></td></tr><tr><td style="font-weight:bold;vertical-align:top;">status</td><td style="vertical-align:top;">:</td><td><div>200</div></td></tr><tr><td style="font-weight:bold;vertical-align:top;">subtitle</td><td style="vertical-align:top;">:</td><td><div>Post and sell your items on many sites with ease</div></td></tr><tr><td style="font-weight:bold;vertical-align:top;">title</td><td style="vertical-align:top;">:</td><td><div>Search Ads</div></td></tr><tr><td style="font-weight:bold;vertical-align:top;">view</td><td style="vertical-align:top;">:</td><td><div>default/searchposts.html</div></td></tr></table></div>'
tRp122
sS'locals'
p123
(dp124
S'Service'
p125
S"<class 'gluon.tools.Service'>"
p126
sS'OBJECT'
p127
S"<class 'gluon.html.OBJECT'>"
p128
sS'SQLDB'
p129
S"<class 'gluon.dal.DAL'>"
p130
sg115
S"<Storage {'_auth_next': '/adguru/default/po...version': '36.0.1985.143', 'name': 'Chrome'}>}>}>"
p131
sS'LINK'
p132
S"<class 'gluon.html.LINK'>"
p133
sS'BR'
p134
S"<class 'gluon.html.BR'>"
p135
sS'local_import'
p136
S'<function <lambda>>'
p137
sS'OPTGROUP'
p138
S"<class 'gluon.html.OPTGROUP'>"
p139
sS'__package__'
p140
S'None'
p141
sS'PRE'
p142
S"<class 'gluon.html.PRE'>"
p143
sS'IS_INT_IN_RANGE'
p144
S"<class 'gluon.validators.IS_INT_IN_RANGE'>"
p145
sS'left_sidebar_enabled'
p146
S'False'
p147
sS'IS_LOWER'
p148
S"<class 'gluon.validators.IS_LOWER'>"
p149
sS'IS_STRONG'
p150
S"<class 'gluon.validators.IS_STRONG'>"
p151
sS'menu'
p152
S'<function menu>'
p153
sS'cache'
p154
S'<gluon.cache.Cache object>'
p155
sS'IS_IN_DB'
p156
S"<class 'gluon.validators.IS_IN_DB'>"
p157
sS'TAG'
p158
S'<gluon.html.__TAG__ object>'
p159
sS'SQLField'
p160
S"<class 'gluon.dal.Field'>"
p161
sS'mail'
p162
S'<gluon.tools.Mail object>'
p163
sS'BODY'
p164
S"<class 'gluon.html.BODY'>"
p165
sS'IS_DATE_IN_RANGE'
p166
S"<class 'gluon.validators.IS_DATE_IN_RANGE'>"
p167
sS'IFRAME'
p168
S"<class 'gluon.html.IFRAME'>"
p169
sS'URL'
p170
S'<function URL>'
p171
sS'__file__'
p172
S"'/Users/sepehrtaheri/PycharmProjects/adguru/...ations/adguru/views/default/searchposts.html'"
p173
sS'db'
p174
S'<DAL uri="mysql:******@db4free.net:3306/vancouver">'
p175
sS'auth'
p176
S'<gluon.tools.Auth object>'
p177
sS'P'
S"<class 'gluon.html.P'>"
p178
sS'TFOOT'
p179
S"<class 'gluon.html.TFOOT'>"
p180
sS'XHTML'
p181
S"<class 'gluon.html.XHTML'>"
p182
sS'datetime'
p183
S"<module 'datetime' from '/System/Library/Framewo...sions/2.7/lib/python2.7/lib-dynload/datetime.so'>"
p184
sS'ON'
p185
S'True'
p186
sS'OL'
p187
S"<class 'gluon.html.OL'>"
p188
sS'TEXTAREA'
p189
S"<class 'gluon.html.TEXTAREA'>"
p190
sS'MENU'
p191
S"<class 'gluon.html.MENU'>"
p192
sS'IS_IMAGE'
p193
S"<class 'gluon.validators.IS_IMAGE'>"
p194
sS'EM'
p195
S"<class 'gluon.html.EM'>"
p196
sS'CODE'
p197
S"<class 'gluon.html.CODE'>"
p198
sS'HTTP'
p199
S"<class 'gluon.http.HTTP'>"
p200
sS'HR'
p201
S"<class 'gluon.html.HR'>"
p202
sS'IS_DATETIME'
p203
S"<class 'gluon.validators.IS_DATETIME'>"
p204
sS'STYLE'
p205
S"<class 'gluon.html.STYLE'>"
p206
sS'LABEL'
p207
S"<class 'gluon.html.LABEL'>"
p208
sS'CLEANUP'
p209
S"<class 'gluon.validators.CLEANUP'>"
p210
sS'plugins'
p211
S'<gluon.tools.PluginManager object>'
p212
sS'IS_DATETIME_IN_RANGE'
p213
S"<class 'gluon.validators.IS_DATETIME_IN_RANGE'>"
p214
sS'SELECT'
p215
S"<class 'gluon.html.SELECT'>"
p216
sS'use_janrain'
p217
S'<function use_janrain>'
p218
sS'CENTER'
p219
S"<class 'gluon.html.CENTER'>"
p220
sS'prettydate'
p221
S'<function prettydate>'
p222
sS'Crud'
p223
S"<class 'gluon.tools.Crud'>"
p224
sS'Auth'
p225
S"<class 'gluon.tools.Auth'>"
p226
sS'DEVELOPMENT_MENU'
p227
g186
sS'current'
p228
S'<thread._local object>'
p229
sS'__builtins__'
p230
S"{'ArithmeticError': <type 'exceptions.ArithmeticError'>, 'AssertionError': <type 'exceptions.AssertionError'>, 'AttributeError': <type 'exceptions.AttributeError'>, 'BaseException': <type 'exceptions.BaseException'>, 'BufferError': <type 'exceptions.BufferError'>, 'BytesWarning': <type 'exceptions.BytesWarning'>, 'DeprecationWarning': <type 'exceptions.DeprecationWarning'>, 'EOFError': <type 'exceptions.EOFError'>, 'Ellipsis': Ellipsis, 'EnvironmentError': <type 'exceptions.EnvironmentError'>, ...}"
p231
sS'HTML'
p232
S"<class 'gluon.html.HTML'>"
p233
sS'SQLFORM'
p234
S"<class 'gluon.sqlhtml.SQLFORM'>"
p235
sS'email'
p236
S"''"
p237
sS'LOAD'
p238
S'<function LOAD>'
p239
sS'redirect'
p240
S'<function redirect>'
p241
sS'FIELDSET'
p242
S"<class 'gluon.html.FIELDSET'>"
p243
sS'IS_EQUAL_TO'
p244
S"<class 'gluon.validators.IS_EQUAL_TO'>"
p245
sS'embed64'
p246
S'<function embed64>'
p247
sS'IS_LIST_OF'
p248
S"<class 'gluon.validators.IS_LIST_OF'>"
p249
sS'INPUT'
p250
S"<class 'gluon.html.INPUT'>"
p251
sS'EMBED'
p252
S"<class 'gluon.html.EMBED'>"
p253
sS'_'
S'<function _>'
p254
sS'navbar'
p255
S'<function navbar>'
p256
sS'H3'
p257
S"<class 'gluon.html.H3'>"
p258
sS'BUTTON'
p259
S"<class 'gluon.html.BUTTON'>"
p260
sS'H1'
p261
S"<class 'gluon.html.H1'>"
p262
sS'H6'
p263
S"<class 'gluon.html.H6'>"
p264
sS'H4'
p265
S"<class 'gluon.html.H4'>"
p266
sS'H5'
p267
S"<class 'gluon.html.H5'>"
p268
sS'UL'
p269
S"<class 'gluon.html.UL'>"
p270
sS'cloudinary'
p271
S"<module 'cloudinary' from '/Library/Python/2.7/s...dinary-1.0.18-py2.7.egg/cloudinary/__init__.pyc'>"
p272
sS'IS_UPPER'
p273
S"<class 'gluon.validators.IS_UPPER'>"
p274
sS'xmlescape'
p275
S'<function xmlescape>'
p276
sS'IS_TIME'
p277
S"<class 'gluon.validators.IS_TIME'>"
p278
sS'OPTION'
p279
S"<class 'gluon.html.OPTION'>"
p280
sS'TITLE'
p281
S"<class 'gluon.html.TITLE'>"
p282
sS'CRYPT'
p283
S"<class 'gluon.validators.CRYPT'>"
p284
sS'searchresults'
p285
S'<Rows (1)>'
p286
sS'IS_EMPTY_OR'
p287
S"<class 'gluon.validators.IS_EMPTY_OR'>"
p288
sS'MARKMIN'
p289
S"<class 'gluon.html.MARKMIN'>"
p290
sS'__name__'
p291
S"'__restricted__'"
p292
sS'STRONG'
p293
S"<class 'gluon.html.STRONG'>"
p294
sS'COL'
p295
S"<class 'gluon.html.COL'>"
p296
sS'service'
p297
S'<gluon.tools.Service object>'
p298
sS'SCRIPT'
p299
S"<class 'gluon.html.SCRIPT'>"
p300
sS'is_mobile'
p301
g147
sS'TABLE'
p302
S"<class 'gluon.html.TABLE'>"
p303
sS'IS_IPV4'
p304
S"<class 'gluon.validators.IS_IPV4'>"
p305
sS'IS_LENGTH'
p306
S"<class 'gluon.validators.IS_LENGTH'>"
p307
sS'IS_IPV6'
p308
S"<class 'gluon.validators.IS_IPV6'>"
p309
sS'XML'
p310
S"<class 'gluon.html.XML'>"
p311
sS'B'
S"<class 'gluon.html.B'>"
p312
sS'IMG'
p313
S"<class 'gluon.html.IMG'>"
p314
sS'SQLTABLE'
p315
S"<class 'gluon.sqlhtml.SQLTABLE'>"
p316
sS'IS_MATCH'
p317
S"<class 'gluon.validators.IS_MATCH'>"
p318
sS'IS_ALPHANUMERIC'
p319
S"<class 'gluon.validators.IS_ALPHANUMERIC'>"
p320
sS'phone'
p321
S"''"
p322
sS'count'
p323
S'1L'
p324
sS'SPAN'
p325
S"<class 'gluon.html.SPAN'>"
p326
sS'IS_JSON'
p327
S"<class 'gluon.validators.IS_JSON'>"
p328
sS'IS_IPADDRESS'
p329
S"<class 'gluon.validators.IS_IPADDRESS'>"
p330
sS'IS_SLUG'
p331
S"<class 'gluon.validators.IS_SLUG'>"
p332
sS'H2'
p333
S"<class 'gluon.html.H2'>"
p334
sS'BEAUTIFY'
p335
S"<class 'gluon.html.BEAUTIFY'>"
p336
sS'META'
p337
S"<class 'gluon.html.META'>"
p338
sS'IS_DATE'
p339
S"<class 'gluon.validators.IS_DATE'>"
p340
sS'IS_EMAIL'
p341
S"<class 'gluon.validators.IS_EMAIL'>"
p342
sS'IS_NOT_EMPTY'
p343
S"<class 'gluon.validators.IS_NOT_EMPTY'>"
p344
sS'IS_FLOAT_IN_RANGE'
p345
S"<class 'gluon.validators.IS_FLOAT_IN_RANGE'>"
p346
sS'TBODY'
p347
S"<class 'gluon.html.TBODY'>"
p348
sS'CAT'
p349
S"<class 'gluon.html.CAT'>"
p350
sS'Field'
p351
S"<class 'gluon.dal.Field'>"
p352
sS'IS_LIST_OF_EMAILS'
p353
S"<class 'gluon.validators.IS_LIST_OF_EMAILS'>"
p354
sS'middle_columns'
p355
S"'span12'"
p356
sS'DIV'
p357
S"<class 'gluon.html.DIV'>"
p358
sS'LEGEND'
p359
S"<class 'gluon.html.LEGEND'>"
p360
sS'COLGROUP'
p361
S"<class 'gluon.html.COLGROUP'>"
p362
sS'DAL'
p363
S"<class 'gluon.dal.DAL'>"
p364
sS'TT'
p365
S"<class 'gluon.html.TT'>"
p366
sS'TR'
p367
S"<class 'gluon.html.TR'>"
p368
sS'LI'
p369
S"<class 'gluon.html.LI'>"
p370
sS'right_sidebar_enabled'
p371
g147
sS'TH'
p372
S"<class 'gluon.html.TH'>"
p373
sS'TD'
p374
S"<class 'gluon.html.TD'>"
p375
sS'PluginManager'
p376
S"<class 'gluon.tools.PluginManager'>"
p377
sS'IS_URL'
p378
S"<class 'gluon.validators.IS_URL'>"
p379
sS'A'
S"<class 'gluon.html.A'>"
p380
sS'HEAD'
p381
S"<class 'gluon.html.HEAD'>"
p382
sS'searchform'
p383
S'<gluon.sqlhtml.SQLFORM object>'
p384
sS'FORM'
p385
S"<class 'gluon.html.FORM'>"
p386
sS'I'
S"<class 'gluon.html.I'>"
p387
sS'crud'
p388
S'<gluon.tools.Crud object>'
p389
sS'IS_NOT_IN_DB'
p390
S"<class 'gluon.validators.IS_NOT_IN_DB'>"
p391
sg121
S"<Storage {'body': <cStringIO.StringO object at 0...x10f495c08>, 'view': 'default/searchposts.html'}>"
p392
sS'THEAD'
p393
S"<class 'gluon.html.THEAD'>"
p394
sS'ANY_OF'
p395
S"<class 'gluon.validators.ANY_OF'>"
p396
sS'IS_NULL_OR'
p397
S"<class 'gluon.validators.IS_EMPTY_OR'>"
p398
sg56
S"<Storage {'_vars': None, 'function': 'index', 'c...s/adguru/web2py/applications/adguru/'}>"
p399
sS'IS_EXPR'
p400
S"<class 'gluon.validators.IS_EXPR'>"
p401
sS'T'
S'<gluon.languages.translator object>'
p402
sS'IS_IN_SET'
p403
S"<class 'gluon.validators.IS_IN_SET'>"
p404
sS'IS_UPLOAD_FILENAME'
p405
S"<class 'gluon.validators.IS_UPLOAD_FILENAME'>"
p406
sS'IS_DECIMAL_IN_RANGE'
p407
S"<class 'gluon.validators.IS_DECIMAL_IN_RANGE'>"
p408
sssS'traceback'
p409
S'Traceback (most recent call last):\n  File "/Users/sepehrtaheri/PycharmProjects/adguru/web2py/gluon/restricted.py", line 220, in restricted\n    exec ccode in environment\n  File "/Users/sepehrtaheri/PycharmProjects/adguru/web2py/applications/adguru/views/default/searchposts.html", line 71, in <module>\nNameError: name \'search\' is not defined\n'
p410
s.