(dp1
S'output'
p2
S"<type 'exceptions.TypeError'> can't pickle instancemethod objects"
p3
sS'layer'
p4
S'/Users/sepehrtaheri/PycharmProjects/adguru/web2py/applications/adguru/models/db_vancouver.py'
p5
sS'code'
p6
S"import datetime\n\ndb.define_table('vancouver',\n                Field('location_vancouver_id'),  #, db.location_vancouver),\n                Field('category_id'),  #, db.category, notnull=True),\n                Field('user_id','integer', db.auth_user, default=auth.user_id, writable=False, readable=False),\n                Field('adTitle', 'string', notnull=True),\n                Field('email', requires=IS_EMAIL(), notnull=True),\n                Field('phone_number', requires=IS_MATCH('[\\d\\-\\(\\) ]+'), notnull=True),\n                Field('adDesc', 'text', notnull=True),\n                Field('adPrice', 'integer', notnull=True),\n                Field('isAdValid', 'integer', requires=IS_INT_IN_RANGE(0, 2), default=1, writable=False, readable=False),\n                Field('dateCreated', 'datetime', notnull=True, writable=False, readable=False, default=datetime.datetime.now()),\n                Field('dateEnded', 'datetime'), migrate=True)\n"
p7
sS'snapshot'
p8
(dp9
S'exception'
p10
(dp11
S'__hash__'
p12
S"<method-wrapper '__hash__' of exceptions.TypeError object>"
p13
sS'__setattr__'
p14
S"<method-wrapper '__setattr__' of exceptions.TypeError object>"
p15
sS'__reduce_ex__'
p16
S'<built-in method __reduce_ex__ of exceptions.TypeError object>'
p17
sS'__getslice__'
p18
S"<method-wrapper '__getslice__' of exceptions.TypeError object>"
p19
sS'__getitem__'
p20
S"<method-wrapper '__getitem__' of exceptions.TypeError object>"
p21
sS'__setstate__'
p22
S'<built-in method __setstate__ of exceptions.TypeError object>'
p23
sS'args'
p24
S'("can\'t pickle instancemethod objects",)'
p25
sS'__reduce__'
p26
S'<built-in method __reduce__ of exceptions.TypeError object>'
p27
sS'__str__'
p28
S"<method-wrapper '__str__' of exceptions.TypeError object>"
p29
sS'__format__'
p30
S'<built-in method __format__ of exceptions.TypeError object>'
p31
sS'__getattribute__'
p32
S"<method-wrapper '__getattribute__' of exceptions.TypeError object>"
p33
sS'__class__'
p34
S"<type 'exceptions.TypeError'>"
p35
sS'__unicode__'
p36
S'<built-in method __unicode__ of exceptions.TypeError object>'
p37
sS'__delattr__'
p38
S"<method-wrapper '__delattr__' of exceptions.TypeError object>"
p39
sS'__subclasshook__'
p40
S'<built-in method __subclasshook__ of type object>'
p41
sS'__repr__'
p42
S"<method-wrapper '__repr__' of exceptions.TypeError object>"
p43
sS'__dict__'
p44
S'{}'
p45
sS'__sizeof__'
p46
S'<built-in method __sizeof__ of exceptions.TypeError object>'
p47
sS'__doc__'
p48
S"'Inappropriate argument type.'"
p49
sS'__init__'
p50
S"<method-wrapper '__init__' of exceptions.TypeError object>"
p51
sS'__new__'
p52
S'<built-in method __new__ of type object>'
p53
ssS'evalue'
p54
S"can't pickle instancemethod objects"
p55
sS'request'
p56
cgluon.html
XML_unpickle
p57
(S's\xc8[\x00\x00<div><table><tr><td style="font-weight:bold;vertical-align:top;">ajax</td><td style="vertical-align:top;">:</td><td><div>False</div></td></tr><tr><td style="font-weight:bold;vertical-align:top;">application</td><td style="vertical-align:top;">:</td><td><div>adguru</div></td></tr><tr><td style="font-weight:bold;vertical-align:top;">args</td><td style="vertical-align:top;">:</td><td><div><table></table></div></td></tr><tr><td style="font-weight:bold;vertical-align:top;">cid</td><td style="vertical-align:top;">:</td><td><div>None</div></td></tr><tr><td style="font-weight:bold;vertical-align:top;">client</td><td style="vertical-align:top;">:</td><td><div>127.0.0.1</div></td></tr><tr><td style="font-weight:bold;vertical-align:top;">controller</td><td style="vertical-align:top;">:</td><td><div>default</div></td></tr><tr><td style="font-weight:bold;vertical-align:top;">cookies</td><td style="vertical-align:top;">:</td><td><div><table><tr><td style="font-weight:bold;vertical-align:top;">session_id_admin</td><td style="vertical-align:top;">:</td><td><div>127.0.0.1-0a23e9ad-b1ed-48e4-8814-d9cebe4b4393<table><tr><td style="font-weight:bold;vertical-align:top;">comment</td><td style="vertical-align:top;">:</td><td><div></div></td></tr><tr><td style="font-weight:bold;vertical-align:top;">domain</td><td style="vertical-align:top;">:</td><td><div></div></td></tr><tr><td style="font-weight:bold;vertical-align:top;">expires</td><td style="vertical-align:top;">:</td><td><div></div></td></tr><tr><td style="font-weight:bold;vertical-align:top;">httponly</td><td style="vertical-align:top;">:</td><td><div></div></td></tr><tr><td style="font-weight:bold;vertical-align:top;">max-age</td><td style="vertical-align:top;">:</td><td><div></div></td></tr><tr><td style="font-weight:bold;vertical-align:top;">path</td><td style="vertical-align:top;">:</td><td><div></div></td></tr><tr><td style="font-weight:bold;vertical-align:top;">secure</td><td style="vertical-align:top;">:</td><td><div></div></td></tr><tr><td style="font-weight:bold;vertical-align:top;">version</td><td style="vertical-align:top;">:</td><td><div></div></td></tr></table></div></td></tr><tr><td style="font-weight:bold;vertical-align:top;">session_id_adguru</td><td style="vertical-align:top;">:</td><td><div>127.0.0.1-1e77cab0-fd89-40f5-b321-52aee3b396da<table><tr><td style="font-weight:bold;vertical-align:top;">comment</td><td style="vertical-align:top;">:</td><td><div></div></td></tr><tr><td style="font-weight:bold;vertical-align:top;">domain</td><td style="vertical-align:top;">:</td><td><div></div></td></tr><tr><td style="font-weight:bold;vertical-align:top;">expires</td><td style="vertical-align:top;">:</td><td><div></div></td></tr><tr><td style="font-weight:bold;vertical-align:top;">httponly</td><td style="vertical-align:top;">:</td><td><div></div></td></tr><tr><td style="font-weight:bold;vertical-align:top;">max-age</td><td style="vertical-align:top;">:</td><td><div></div></td></tr><tr><td style="font-weight:bold;vertical-align:top;">path</td><td style="vertical-align:top;">:</td><td><div></div></td></tr><tr><td style="font-weight:bold;vertical-align:top;">secure</td><td style="vertical-align:top;">:</td><td><div></div></td></tr><tr><td style="font-weight:bold;vertical-align:top;">version</td><td style="vertical-align:top;">:</td><td><div></div></td></tr></table></div></td></tr><tr><td style="font-weight:bold;vertical-align:top;">session_id_welcome</td><td style="vertical-align:top;">:</td><td><div>127.0.0.1-cda708d0-4945-43ba-bab6-95e1ae41877b<table><tr><td style="font-weight:bold;vertical-align:top;">comment</td><td style="vertical-align:top;">:</td><td><div></div></td></tr><tr><td style="font-weight:bold;vertical-align:top;">domain</td><td style="vertical-align:top;">:</td><td><div></div></td></tr><tr><td style="font-weight:bold;vertical-align:top;">expires</td><td style="vertical-align:top;">:</td><td><div></div></td></tr><tr><td style="font-weight:bold;vertical-align:top;">httponly</td><td style="vertical-align:top;">:</td><td><div></div></td></tr><tr><td style="font-weight:bold;vertical-align:top;">max-age</td><td style="vertical-align:top;">:</td><td><div></div></td></tr><tr><td style="font-weight:bold;vertical-align:top;">path</td><td style="vertical-align:top;">:</td><td><div></div></td></tr><tr><td style="font-weight:bold;vertical-align:top;">secure</td><td style="vertical-align:top;">:</td><td><div></div></td></tr><tr><td style="font-weight:bold;vertical-align:top;">version</td><td style="vertical-align:top;">:</td><td><div></div></td></tr></table></div></td></tr></table></div></td></tr><tr><td style="font-weight:bold;vertical-align:top;">env</td><td style="vertical-align:top;">:</td><td><div><table><tr><td style="font-weight:bold;vertical-align:top;">HTTP_ACCEPT</td><td style="vertical-align:top;">:</td><td><div>text/html,application/xhtml+xml,application/xml;q=0.9,image/webp,*/*;q=0.8</div></td></tr><tr><td style="font-weight:bold;vertical-align:top;">HTTP_ACCEPT_ENCODING</td><td style="vertical-align:top;">:</td><td><div>gzip,deflate,sdch</div></td></tr><tr><td style="font-weight:bold;vertical-align:top;">HTTP_ACCEPT_LANGUAGE</td><td style="vertical-align:top;">:</td><td><div>en-US,en;q=0.8</div></td></tr><tr><td style="font-weight:bold;vertical-align:top;">HTTP_CONNECTION</td><td style="vertical-align:top;">:</td><td><div>keep-alive</div></td></tr><tr><td style="font-weight:bold;vertical-align:top;">HTTP_COOKIE</td><td style="vertical-align:top;">:</td><td><div>_ga=GA1.1.573380557.1400820513; session_id_welcome=127.0.0.1-cda708d0-4945-43ba-bab6-95e1ae41877b; session_id_admin=127.0.0.1-0a23e9ad-b1ed-48e4-8814-d9cebe4b4393; session_id_adguru=127.0.0.1-1e77cab0-fd89-40f5-b321-52aee3b396da</div></td></tr><tr><td style="font-weight:bold;vertical-align:top;">HTTP_HOST</td><td style="vertical-align:top;">:</td><td><div>127.0.0.1:8000</div></td></tr><tr><td style="font-weight:bold;vertical-align:top;">HTTP_USER_AGENT</td><td style="vertical-align:top;">:</td><td><div>Mozilla/5.0 (Macintosh; Intel Mac OS X 10_9_1) AppleWebKit/537.36 (KHTML, like Gecko) Chrome/36.0.1985.125 Safari/537.36</div></td></tr><tr><td style="font-weight:bold;vertical-align:top;">PATH_INFO</td><td style="vertical-align:top;">:</td><td><div>/adguru/default</div></td></tr><tr><td style="font-weight:bold;vertical-align:top;">QUERY_STRING</td><td style="vertical-align:top;">:</td><td><div></div></td></tr><tr><td style="font-weight:bold;vertical-align:top;">REMOTE_ADDR</td><td style="vertical-align:top;">:</td><td><div>127.0.0.1</div></td></tr><tr><td style="font-weight:bold;vertical-align:top;">REMOTE_PORT</td><td style="vertical-align:top;">:</td><td><div>63812</div></td></tr><tr><td style="font-weight:bold;vertical-align:top;">REQUEST_METHOD</td><td style="vertical-align:top;">:</td><td><div>GET</div></td></tr><tr><td style="font-weight:bold;vertical-align:top;">SCRIPT_NAME</td><td style="vertical-align:top;">:</td><td><div></div></td></tr><tr><td style="font-weight:bold;vertical-align:top;">SERVER_NAME</td><td style="vertical-align:top;">:</td><td><div>Sepehrs-MacBook-Air.local</div></td></tr><tr><td style="font-weight:bold;vertical-align:top;">SERVER_PORT</td><td style="vertical-align:top;">:</td><td><div>8000</div></td></tr><tr><td style="font-weight:bold;vertical-align:top;">SERVER_PROTOCOL</td><td style="vertical-align:top;">:</td><td><div>HTTP/1.1</div></td></tr><tr><td style="font-weight:bold;vertical-align:top;">SERVER_SOFTWARE</td><td style="vertical-align:top;">:</td><td><div>Rocket 1.2.6</div></td></tr><tr><td style="font-weight:bold;vertical-align:top;">app_folders</td><td style="vertical-align:top;">:</td><td><div>set([&#x27;/Users/sepehrtaheri/PycharmProjects/adguru/web2py/applications/adguru/&#x27;, &#x27;/Users/sepehrtaheri/PycharmProjects/adguru/web2py/applications/admin/&#x27;, &#x27;/Users/sepehrtaheri/PycharmProjects/adguru/web2py/applications/welcome/&#x27;])</div></td></tr><tr><td style="font-weight:bold;vertical-align:top;">applications_parent</td><td style="vertical-align:top;">:</td><td><div>/Users/sepehrtaheri/PycharmProjects/adguru/web2py</div></td></tr><tr><td style="font-weight:bold;vertical-align:top;">cmd_args</td><td style="vertical-align:top;">:</td><td><div><table></table></div></td></tr><tr><td style="font-weight:bold;vertical-align:top;">cmd_options</td><td style="vertical-align:top;">:</td><td><div>&lt;Values at 0x105967f80: {&#x27;verbose&#x27;: False, &#x27;ip&#x27;: &#x27;127.0.0.1&#x27;, &#x27;debuglevel&#x27;: 30, &#x27;with_scheduler&#x27;: False, &#x27;ips&#x27;: [&#x27;192.168.1.79&#x27;, &#x27;fe80::60c:ceff:fed3:73ae%en0&#x27;], &#x27;shutdown_timeout&#x27;: 5, &#x27;taskbar&#x27;: False, &#x27;with_coverage&#x27;: False, &#x27;port&#x27;: 8000, &#x27;maxthreads&#x27;: None, &#x27;softcron&#x27;: False, &#x27;server_name&#x27;: &#x27;Sepehrs-MacBook-Air.local&#x27;, &#x27;bpython&#x27;: False, &#x27;nogui&#x27;: False, &#x27;pid_filename&#x27;: &#x27;httpserver.pid&#x27;, &#x27;extcron&#x27;: False, &#x27;runcron&#x27;: False, &#x27;run_system_tests&#x27;: False, &#x27;test&#x27;: None, &#x27;folder&#x27;: &#x27;/Users/sepehrtaheri/PycharmProjects/adguru/web2py&#x27;, &#x27;config&#x27;: &#x27;&#x27;, &#x27;minthreads&#x27;: None, &#x27;shell&#x27;: None, &#x27;run&#x27;: &#x27;&#x27;, &#x27;log_filename&#x27;: &#x27;httpserver.log&#x27;, &#x27;profiler_dir&#x27;: None, &#x27;args&#x27;: [&#x27;&#x27;], &#x27;socket_timeout&#x27;: 5, &#x27;ssl_ca_certificate&#x27;: None, &#x27;scheduler&#x27;: None, &#x27;interfaces&#x27;: None, &#x27;ssl_private_key&#x27;: &#x27;&#x27;, &#x27;scheduler_groups&#x27;: None, &#x27;password&#x27;: &#x27;&lt;ask&gt;&#x27;, &#x27;request_queue_size&#x27;: 5, &#x27;ssl_certificate&#x27;: &#x27;&#x27;, &#x27;cronjob&#x27;: False, &#x27;numthreads&#x27;: None, &#x27;quiet&#x27;: False, &#x27;import_models&#x27;: False, &#x27;timeout&#x27;: 10, &#x27;plain&#x27;: False, &#x27;nobanner&#x27;: False}&gt;</div></td></tr><tr><td style="font-weight:bold;vertical-align:top;">db_sessions</td><td style="vertical-align:top;">:</td><td><div>set([])</div></td></tr><tr><td style="font-weight:bold;vertical-align:top;">debugging</td><td style="vertical-align:top;">:</td><td><div>False</div></td></tr><tr><td style="font-weight:bold;vertical-align:top;">gluon_parent</td><td style="vertical-align:top;">:</td><td><div>/Users/sepehrtaheri/PycharmProjects/adguru/web2py</div></td></tr><tr><td style="font-weight:bold;vertical-align:top;">http_accept</td><td style="vertical-align:top;">:</td><td><div>text/html,application/xhtml+xml,application/xml;q=0.9,image/webp,*/*;q=0.8</div></td></tr><tr><td style="font-weight:bold;vertical-align:top;">http_accept_encoding</td><td style="vertical-align:top;">:</td><td><div>gzip,deflate,sdch</div></td></tr><tr><td style="font-weight:bold;vertical-align:top;">http_accept_language</td><td style="vertical-align:top;">:</td><td><div>en-US,en;q=0.8</div></td></tr><tr><td style="font-weight:bold;vertical-align:top;">http_connection</td><td style="vertical-align:top;">:</td><td><div>keep-alive</div></td></tr><tr><td style="font-weight:bold;vertical-align:top;">http_cookie</td><td style="vertical-align:top;">:</td><td><div>_ga=GA1.1.573380557.1400820513; session_id_welcome=127.0.0.1-cda708d0-4945-43ba-bab6-95e1ae41877b; session_id_admin=127.0.0.1-0a23e9ad-b1ed-48e4-8814-d9cebe4b4393; session_id_adguru=127.0.0.1-1e77cab0-fd89-40f5-b321-52aee3b396da</div></td></tr><tr><td style="font-weight:bold;vertical-align:top;">http_host</td><td style="vertical-align:top;">:</td><td><div>127.0.0.1:8000</div></td></tr><tr><td style="font-weight:bold;vertical-align:top;">http_user_agent</td><td style="vertical-align:top;">:</td><td><div>Mozilla/5.0 (Macintosh; Intel Mac OS X 10_9_1) AppleWebKit/537.36 (KHTML, like Gecko) Chrome/36.0.1985.125 Safari/537.36</div></td></tr><tr><td style="font-weight:bold;vertical-align:top;">is_jython</td><td style="vertical-align:top;">:</td><td><div>False</div></td></tr><tr><td style="font-weight:bold;vertical-align:top;">is_pypy</td><td style="vertical-align:top;">:</td><td><div>False</div></td></tr><tr><td style="font-weight:bold;vertical-align:top;">is_source</td><td style="vertical-align:top;">:</td><td><div>True</div></td></tr><tr><td style="font-weight:bold;vertical-align:top;">local_hosts</td><td style="vertical-align:top;">:</td><td><div><table><tr><td><div>192.168.1.79</div></td></tr><tr><td><div>::ffff:127.0.0.1</div></td></tr><tr><td><div>fe80::60c:ceff:fed3:73ae%en0</div></td></tr><tr><td><div>::1</div></td></tr><tr><td><div>Sepehrs-MacBook-Air.local</div></td></tr><tr><td><div>127.0.0.1</div></td></tr></table></div></td></tr><tr><td style="font-weight:bold;vertical-align:top;">path_info</td><td style="vertical-align:top;">:</td><td><div>/adguru/default</div></td></tr><tr><td style="font-weight:bold;vertical-align:top;">query_string</td><td style="vertical-align:top;">:</td><td><div></div></td></tr><tr><td style="font-weight:bold;vertical-align:top;">remote_addr</td><td style="vertical-align:top;">:</td><td><div>127.0.0.1</div></td></tr><tr><td style="font-weight:bold;vertical-align:top;">remote_port</td><td style="vertical-align:top;">:</td><td><div>63812</div></td></tr><tr><td style="font-weight:bold;vertical-align:top;">request_method</td><td style="vertical-align:top;">:</td><td><div>GET</div></td></tr><tr><td style="font-weight:bold;vertical-align:top;">request_uri</td><td style="vertical-align:top;">:</td><td><div>/adguru/default</div></td></tr><tr><td style="font-weight:bold;vertical-align:top;">script_name</td><td style="vertical-align:top;">:</td><td><div></div></td></tr><tr><td style="font-weight:bold;vertical-align:top;">server_name</td><td style="vertical-align:top;">:</td><td><div>Sepehrs-MacBook-Air.local</div></td></tr><tr><td style="font-weight:bold;vertical-align:top;">server_port</td><td style="vertical-align:top;">:</td><td><div>8000</div></td></tr><tr><td style="font-weight:bold;vertical-align:top;">server_protocol</td><td style="vertical-align:top;">:</td><td><div>HTTP/1.1</div></td></tr><tr><td style="font-weight:bold;vertical-align:top;">server_software</td><td style="vertical-align:top;">:</td><td><div>Rocket 1.2.6</div></td></tr><tr><td style="font-weight:bold;vertical-align:top;">web2py_path</td><td style="vertical-align:top;">:</td><td><div>/Users/sepehrtaheri/PycharmProjects/adguru/web2py</div></td></tr><tr><td style="font-weight:bold;vertical-align:top;">web2py_version</td><td style="vertical-align:top;">:</td><td><div>2.9.5-stable+timestamp.2014.03.16.02.35.39</div></td></tr><tr><td style="font-weight:bold;vertical-align:top;">wsgi.errors</td><td style="vertical-align:top;">:</td><td><div>&lt;open file &#x27;&lt;stderr&gt;&#x27;, mode &#x27;w&#x27; at 0x104a9a1e0&gt;</div></td></tr><tr><td style="font-weight:bold;vertical-align:top;">wsgi.file_wrapper</td><td style="vertical-align:top;">:</td><td><div>&lt;class wsgiref.util.FileWrapper at 0x105698e88&gt;</div></td></tr><tr><td style="font-weight:bold;vertical-align:top;">wsgi.input</td><td style="vertical-align:top;">:</td><td><div>&lt;socket._fileobject object at 0x10e515f50&gt;</div></td></tr><tr><td style="font-weight:bold;vertical-align:top;">wsgi.multiprocess</td><td style="vertical-align:top;">:</td><td><div>False</div></td></tr><tr><td style="font-weight:bold;vertical-align:top;">wsgi.multithread</td><td style="vertical-align:top;">:</td><td><div>True</div></td></tr><tr><td style="font-weight:bold;vertical-align:top;">wsgi.run_once</td><td style="vertical-align:top;">:</td><td><div>False</div></td></tr><tr><td style="font-weight:bold;vertical-align:top;">wsgi.url_scheme</td><td style="vertical-align:top;">:</td><td><div>http</div></td></tr><tr><td style="font-weight:bold;vertical-align:top;">wsgi.version</td><td style="vertical-align:top;">:</td><td><div><table><tr><td><div>1</div></td></tr><tr><td><div>0</div></td></tr></table></div></td></tr><tr><td style="font-weight:bold;vertical-align:top;">wsgi_errors</td><td style="vertical-align:top;">:</td><td><div>&lt;open file &#x27;&lt;stderr&gt;&#x27;, mode &#x27;w&#x27; at 0x104a9a1e0&gt;</div></td></tr><tr><td style="font-weight:bold;vertical-align:top;">wsgi_file_wrapper</td><td style="vertical-align:top;">:</td><td><div>&lt;class wsgiref.util.FileWrapper at 0x105698e88&gt;</div></td></tr><tr><td style="font-weight:bold;vertical-align:top;">wsgi_input</td><td style="vertical-align:top;">:</td><td><div>&lt;socket._fileobject object at 0x10e515f50&gt;</div></td></tr><tr><td style="font-weight:bold;vertical-align:top;">wsgi_multiprocess</td><td style="vertical-align:top;">:</td><td><div>False</div></td></tr><tr><td style="font-weight:bold;vertical-align:top;">wsgi_multithread</td><td style="vertical-align:top;">:</td><td><div>True</div></td></tr><tr><td style="font-weight:bold;vertical-align:top;">wsgi_run_once</td><td style="vertical-align:top;">:</td><td><div>False</div></td></tr><tr><td style="font-weight:bold;vertical-align:top;">wsgi_url_scheme</td><td style="vertical-align:top;">:</td><td><div>http</div></td></tr><tr><td style="font-weight:bold;vertical-align:top;">wsgi_version</td><td style="vertical-align:top;">:</td><td><div><table><tr><td><div>1</div></td></tr><tr><td><div>0</div></td></tr></table></div></td></tr></table></div></td></tr><tr><td style="font-weight:bold;vertical-align:top;">extension</td><td style="vertical-align:top;">:</td><td><div>html</div></td></tr><tr><td style="font-weight:bold;vertical-align:top;">folder</td><td style="vertical-align:top;">:</td><td><div>/Users/sepehrtaheri/PycharmProjects/adguru/web2py/applications/adguru/</div></td></tr><tr><td style="font-weight:bold;vertical-align:top;">function</td><td style="vertical-align:top;">:</td><td><div>index</div></td></tr><tr><td style="font-weight:bold;vertical-align:top;">global_settings</td><td style="vertical-align:top;">:</td><td><div><table><tr><td style="font-weight:bold;vertical-align:top;">app_folders</td><td style="vertical-align:top;">:</td><td><div>set([&#x27;/Users/sepehrtaheri/PycharmProjects/adguru/web2py/applications/adguru/&#x27;, &#x27;/Users/sepehrtaheri/PycharmProjects/adguru/web2py/applications/admin/&#x27;, &#x27;/Users/sepehrtaheri/PycharmProjects/adguru/web2py/applications/welcome/&#x27;])</div></td></tr><tr><td style="font-weight:bold;vertical-align:top;">applications_parent</td><td style="vertical-align:top;">:</td><td><div>/Users/sepehrtaheri/PycharmProjects/adguru/web2py</div></td></tr><tr><td style="font-weight:bold;vertical-align:top;">cmd_args</td><td style="vertical-align:top;">:</td><td><div><table></table></div></td></tr><tr><td style="font-weight:bold;vertical-align:top;">cmd_options</td><td style="vertical-align:top;">:</td><td><div>&lt;Values at 0x105967f80: {&#x27;verbose&#x27;: False, &#x27;ip&#x27;: &#x27;127.0.0.1&#x27;, &#x27;debuglevel&#x27;: 30, &#x27;with_scheduler&#x27;: False, &#x27;ips&#x27;: [&#x27;192.168.1.79&#x27;, &#x27;fe80::60c:ceff:fed3:73ae%en0&#x27;], &#x27;shutdown_timeout&#x27;: 5, &#x27;taskbar&#x27;: False, &#x27;with_coverage&#x27;: False, &#x27;port&#x27;: 8000, &#x27;maxthreads&#x27;: None, &#x27;softcron&#x27;: False, &#x27;server_name&#x27;: &#x27;Sepehrs-MacBook-Air.local&#x27;, &#x27;bpython&#x27;: False, &#x27;nogui&#x27;: False, &#x27;pid_filename&#x27;: &#x27;httpserver.pid&#x27;, &#x27;extcron&#x27;: False, &#x27;runcron&#x27;: False, &#x27;run_system_tests&#x27;: False, &#x27;test&#x27;: None, &#x27;folder&#x27;: &#x27;/Users/sepehrtaheri/PycharmProjects/adguru/web2py&#x27;, &#x27;config&#x27;: &#x27;&#x27;, &#x27;minthreads&#x27;: None, &#x27;shell&#x27;: None, &#x27;run&#x27;: &#x27;&#x27;, &#x27;log_filename&#x27;: &#x27;httpserver.log&#x27;, &#x27;profiler_dir&#x27;: None, &#x27;args&#x27;: [&#x27;&#x27;], &#x27;socket_timeout&#x27;: 5, &#x27;ssl_ca_certificate&#x27;: None, &#x27;scheduler&#x27;: None, &#x27;interfaces&#x27;: None, &#x27;ssl_private_key&#x27;: &#x27;&#x27;, &#x27;scheduler_groups&#x27;: None, &#x27;password&#x27;: &#x27;&lt;ask&gt;&#x27;, &#x27;request_queue_size&#x27;: 5, &#x27;ssl_certificate&#x27;: &#x27;&#x27;, &#x27;cronjob&#x27;: False, &#x27;numthreads&#x27;: None, &#x27;quiet&#x27;: False, &#x27;import_models&#x27;: False, &#x27;timeout&#x27;: 10, &#x27;plain&#x27;: False, &#x27;nobanner&#x27;: False}&gt;</div></td></tr><tr><td style="font-weight:bold;vertical-align:top;">db_sessions</td><td style="vertical-align:top;">:</td><td><div>set([])</div></td></tr><tr><td style="font-weight:bold;vertical-align:top;">debugging</td><td style="vertical-align:top;">:</td><td><div>False</div></td></tr><tr><td style="font-weight:bold;vertical-align:top;">gluon_parent</td><td style="vertical-align:top;">:</td><td><div>/Users/sepehrtaheri/PycharmProjects/adguru/web2py</div></td></tr><tr><td style="font-weight:bold;vertical-align:top;">is_jython</td><td style="vertical-align:top;">:</td><td><div>False</div></td></tr><tr><td style="font-weight:bold;vertical-align:top;">is_pypy</td><td style="vertical-align:top;">:</td><td><div>False</div></td></tr><tr><td style="font-weight:bold;vertical-align:top;">is_source</td><td style="vertical-align:top;">:</td><td><div>True</div></td></tr><tr><td style="font-weight:bold;vertical-align:top;">local_hosts</td><td style="vertical-align:top;">:</td><td><div><table><tr><td><div>192.168.1.79</div></td></tr><tr><td><div>::ffff:127.0.0.1</div></td></tr><tr><td><div>fe80::60c:ceff:fed3:73ae%en0</div></td></tr><tr><td><div>::1</div></td></tr><tr><td><div>Sepehrs-MacBook-Air.local</div></td></tr><tr><td><div>127.0.0.1</div></td></tr></table></div></td></tr><tr><td style="font-weight:bold;vertical-align:top;">web2py_version</td><td style="vertical-align:top;">:</td><td><div>2.9.5-stable+timestamp.2014.03.16.02.35.39</div></td></tr></table></div></td></tr><tr><td style="font-weight:bold;vertical-align:top;">is_https</td><td style="vertical-align:top;">:</td><td><div>False</div></td></tr><tr><td style="font-weight:bold;vertical-align:top;">is_local</td><td style="vertical-align:top;">:</td><td><div>True</div></td></tr><tr><td style="font-weight:bold;vertical-align:top;">is_restful</td><td style="vertical-align:top;">:</td><td><div>False</div></td></tr><tr><td style="font-weight:bold;vertical-align:top;">now</td><td style="vertical-align:top;">:</td><td><div>datetime.datetime(2014, 8, 5, 21, 17, 47, 683199)</div></td></tr><tr><td style="font-weight:bold;vertical-align:top;">raw_args</td><td style="vertical-align:top;">:</td><td><div></div></td></tr><tr><td style="font-weight:bold;vertical-align:top;">raw_extension</td><td style="vertical-align:top;">:</td><td><div>None</div></td></tr><tr><td style="font-weight:bold;vertical-align:top;">url</td><td style="vertical-align:top;">:</td><td><div>/adguru/default</div></td></tr><tr><td style="font-weight:bold;vertical-align:top;">utcnow</td><td style="vertical-align:top;">:</td><td><div>datetime.datetime(2014, 8, 6, 4, 17, 47, 684977)</div></td></tr><tr><td style="font-weight:bold;vertical-align:top;">uuid</td><td style="vertical-align:top;">:</td><td><div>adguru/127.0.0.1.2014-08-05.21-17-47.1bbd5618-55f7-4b72-bc48-867192fecf33</div></td></tr><tr><td style="font-weight:bold;vertical-align:top;">wsgi</td><td style="vertical-align:top;">:</td><td><div>&lt;gluon.main.LazyWSGI object at 0x10e429150&gt;</div></td></tr></table></div>'
tRp58
sS'frames'
p59
(lp60
(dp61
S'file'
p62
S'/Users/sepehrtaheri/PycharmProjects/adguru/web2py/gluon/restricted.py'
p63
sS'dump'
p64
(dp65
S'environment'
p66
S"{'A': <class 'gluon.html.A'>, 'ANY_OF': <class 'gluon.validators.ANY_OF'>, 'Auth': <class 'gluon.tools.Auth'>, 'B': <class 'gluon.html.B'>, 'BEAUTIFY': <class 'gluon.html.BEAUTIFY'>, 'BODY': <class 'gluon.html.BODY'>, 'BR': <class 'gluon.html.BR'>, 'BUTTON': <class 'gluon.html.BUTTON'>, 'CAT': <class 'gluon.html.CAT'>, 'CENTER': <class 'gluon.html.CENTER'>, ...}"
p67
sS'ccode'
p68
S'<code object <module> at 0x10e3a08b0, file "/Use...ions/adguru/models/db_vancouver.py", line 1>'
p69
ssS'lnum'
p70
I220
sS'lines'
p71
(dp72
I224
S'        # do not encapsulate (obfuscate) the original RestrictedError'
p73
sI215
S'    try:'
p74
sI216
S'        if isinstance(code, types.CodeType):'
p75
sI217
S'            ccode = code'
p76
sI218
S'        else:'
p77
sI219
S'            ccode = compile2(code, layer)'
p78
sI220
S'        exec ccode in environment'
p79
sI221
S'    except HTTP:'
p80
sI222
S'        raise'
p81
sI223
S'    except RestrictedError:'
p82
ssS'call'
p83
S'(code="import datetime\\n\\ndb.define_table(\'vancouver\',\\n  ...   Field(\'dateEnded\', \'datetime\'), migrate=True)\\n", environment={\'A\': <class \'gluon.html.A\'>, \'ANY_OF\': <class \'gluon.validators.ANY_OF\'>, \'Auth\': <class \'gluon.tools.Auth\'>, \'B\': <class \'gluon.html.B\'>, \'BEAUTIFY\': <class \'gluon.html.BEAUTIFY\'>, \'BODY\': <class \'gluon.html.BODY\'>, \'BR\': <class \'gluon.html.BR\'>, \'BUTTON\': <class \'gluon.html.BUTTON\'>, \'CAT\': <class \'gluon.html.CAT\'>, \'CENTER\': <class \'gluon.html.CENTER\'>, ...}, layer=\'/Users/sepehrtaheri/PycharmProjects/adguru/...y/applications/adguru/models/db_vancouver.py\')'
p84
sS'func'
p85
S'restricted'
p86
sa(dp87
g62
S'/Users/sepehrtaheri/PycharmProjects/adguru/web2py/applications/adguru/models/db_vancouver.py'
p88
sg64
(dp89
S'migrate'
p90
S'undefined'
p91
sS'Field'
p92
S"<class 'gluon.dal.Field'>"
p93
sS'builtinTrue'
p94
S'True'
p95
ssg70
I14
sg71
(dp96
I5
S"                Field('category_id'),  #, db.category, notnull=True),"
p97
sI6
S"                Field('user_id','integer', db.auth_user, default=auth.user_id, writable=False, readable=False),"
p98
sI7
S"                Field('adTitle', 'string', notnull=True),"
p99
sI8
S"                Field('email', requires=IS_EMAIL(), notnull=True),"
p100
sI9
S"                Field('phone_number', requires=IS_MATCH('[\\d\\-\\(\\) ]+'), notnull=True),"
p101
sI10
S"                Field('adDesc', 'text', notnull=True),"
p102
sI11
S"                Field('adPrice', 'integer', notnull=True),"
p103
sI12
S"                Field('isAdValid', 'integer', requires=IS_INT_IN_RANGE(0, 2), default=1, writable=False, readable=False),"
p104
sI13
S"                Field('dateCreated', 'datetime', notnull=True, writable=False, readable=False, default=datetime.datetime.now()),"
p105
sI14
S"                Field('dateEnded', 'datetime'), migrate=True)"
p106
ssg83
S'()'
p107
sg85
S'<module>'
p108
sa(dp109
g62
S'/Users/sepehrtaheri/PycharmProjects/adguru/web2py/gluon/dal.py'
p110
sg64
(dp111
S'fields'
p112
S'(<gluon.dal.Field object>, <gluon.dal.Field object>, <gluon.dal.Field object>, <gluon.dal.Field object>, <gluon.dal.Field object>, <gluon.dal.Field object>, <gluon.dal.Field object>, <gluon.dal.Field object>, <gluon.dal.Field object>, <gluon.dal.Field object>, <gluon.dal.Field object>)'
p113
sS'self'
p114
S'<DAL uri="mysql:******@db4free.net:3306/vancouver">'
p115
sS'args'
p116
S"{'migrate': True}"
p117
sS'tablename'
p118
S"'vancouver'"
p119
sS'table'
p120
g91
sS'self.lazy_define_table'
p121
S'<bound method DAL.lazy_define_table of <DAL uri="mysql:******@db4free.net:3306/vancouver">>'
p122
ssg70
I8223
sg71
(dp123
I8224
S'        if not tablename in self.tables:'
p124
sI8225
S'            self.tables.append(tablename)'
p125
sI8226
S'        return table'
p126
sI8227
S''
sI8218
S'                    % (tablename,invalid_args))'
p127
sI8219
S'        if self._lazy_tables and not tablename in self._LAZY_TABLES:'
p128
sI8220
S'            self._LAZY_TABLES[tablename] = (tablename,fields,args)'
p129
sI8221
S'            table = None'
p130
sI8222
S'        else:'
p131
sI8223
S'            table = self.lazy_define_table(tablename,*fields,**args)'
p132
ssg83
S'(self=<DAL uri="mysql:******@db4free.net:3306/vancouver">, tablename=\'vancouver\', *fields=(<gluon.dal.Field object>, <gluon.dal.Field object>, <gluon.dal.Field object>, <gluon.dal.Field object>, <gluon.dal.Field object>, <gluon.dal.Field object>, <gluon.dal.Field object>, <gluon.dal.Field object>, <gluon.dal.Field object>, <gluon.dal.Field object>, <gluon.dal.Field object>), **args={\'migrate\': True})'
p133
sg85
S'define_table'
p134
sa(dp135
g62
S'/Users/sepehrtaheri/PycharmProjects/adguru/web2py/gluon/dal.py'
p136
sg64
(dp137
S'polymodel'
p138
S'None'
p139
ssg70
I8260
sg71
(dp140
I8256
S'                GLOBAL_LOCKER.acquire()'
p141
sI8257
S'                self._lastsql = self._adapter.create_table('
p142
sI8258
S'                    table,migrate=migrate,'
p143
sI8259
S'                    fake_migrate=fake_migrate,'
p144
sI8260
S'                    polymodel=polymodel)'
p145
sI8261
S'            finally:'
p146
sI8262
S'                GLOBAL_LOCKER.release()'
p147
sI8263
S'        else:'
p148
sI8264
S'            table._dbt = None'
p149
sI8255
S'            try:'
p150
ssg83
S'(self=<DAL uri="mysql:******@db4free.net:3306/vancouver">, tablename=\'vancouver\', *fields=(<gluon.dal.Field object>, <gluon.dal.Field object>, <gluon.dal.Field object>, <gluon.dal.Field object>, <gluon.dal.Field object>, <gluon.dal.Field object>, <gluon.dal.Field object>, <gluon.dal.Field object>, <gluon.dal.Field object>, <gluon.dal.Field object>, <gluon.dal.Field object>), **args={\'migrate\': True})'
p151
sg85
S'lazy_define_table'
p152
sa(dp153
g62
S'/Users/sepehrtaheri/PycharmProjects/adguru/web2py/gluon/dal.py'
p154
sg64
(dp155
S'fake_migrate'
p156
S'False'
p157
ssg70
I1132
sg71
(dp158
I1127
S'            if sql_fields != sql_fields_old:'
p159
sI1128
S'                self.migrate_table('
p160
sI1129
S'                    table,'
p161
sI1130
S'                    sql_fields, sql_fields_old,'
p162
sI1131
S'                    sql_fields_aux, None,'
p163
sI1132
S'                    fake_migrate=fake_migrate'
p164
sI1133
S'                    )'
p165
sI1134
S'        return query'
p166
sI1135
S''
sI1136
S'    def migrate_table('
p167
ssg83
S'(self=<gluon.dal.MySQLAdapter object>, table=<Table vancouver (id,location_vancouver_id,categ...,adDesc,adPrice,isAdValid,dateCreated,dateEnded)>, migrate=True, fake_migrate=False, polymodel=None)'
p168
sg85
S'create_table'
p169
sa(dp170
g62
S'/Users/sepehrtaheri/PycharmProjects/adguru/web2py/gluon/dal.py'
p171
sg64
(dp172
S'self.save_dbt'
p173
S'<bound method MySQLAdapter.save_dbt of <gluon.dal.MySQLAdapter object>>'
p174
sS'self'
p175
S'<gluon.dal.MySQLAdapter object>'
p176
sS'sql_fields_current'
p177
S"{'addesc': {'length': 32768, 'notnull': True, 'sortable': 8, 'sql': 'LONGTEXT NOT NULL', 'type': 'text', 'unique': False}, 'adprice': {'length': 512, 'notnull': True, 'sortable': 9, 'sql': 'INT NOT NULL', 'type': 'integer', 'unique': False}, 'adtitle': {'length': 512, 'notnull': True, 'sortable': 5, 'sql': 'VARCHAR(512) NOT NULL', 'type': 'string', 'unique': False}, 'category_id': {'length': 512, 'notnull': False, 'sortable': 3, 'sql': 'VARCHAR(512)', 'type': 'string', 'unique': False}, 'datecreated': {'length': 512, 'notnull': True, 'sortable': 11, 'sql': 'DATETIME NOT NULL', 'type': 'datetime', 'unique': False}, 'dateended': {'length': 512, 'notnull': False, 'sortable': 12, 'sql': 'DATETIME', 'type': 'datetime', 'unique': False}, 'email': {'length': 512, 'notnull': True, 'sortable': 6, 'sql': 'VARCHAR(512) NOT NULL', 'type': 'string', 'unique': False}, 'id': {'length': 512, 'notnull': False, 'sortable': 1, 'sql': 'INT AUTO_INCREMENT NOT NULL', 'type': 'id', 'unique': False}, 'isadvalid': {'length': 512, 'notnull': False, 'sortable': 10, 'sql': 'INT', 'type': 'integer', 'unique': False}, 'location_vancouver_id': {'length': 512, 'notnull': False, 'sortable': 2, 'sql': 'VARCHAR(512)', 'type': 'string', 'unique': False}, ...}"
p178
sS'table'
p179
S'<Table vancouver (id,location_vancouver_id,categ...,adDesc,adPrice,isAdValid,dateCreated,dateEnded)>'
p180
ssg70
I1253
sg71
(dp181
I1248
S'                        # in one transaction so we must commit'
p182
sI1249
S'                        # partial transactions and'
p183
sI1250
S'                        # update table._dbt after alter table.'
p184
sI1251
S'                        if db._adapter.commit_on_alter_table:'
p185
sI1252
S'                            db.commit()'
p186
sI1253
S'                            self.save_dbt(table,sql_fields_current)'
p187
sI1254
S"                            self.log('success!\\n', table)"
p188
sI1255
S''
sI1256
S'            elif metadata_change:'
p189
sI1257
S'                self.save_dbt(table,sql_fields_current)'
p190
ssg83
S'(self=<gluon.dal.MySQLAdapter object>, table=<Table vancouver (id,location_vancouver_id,categ...,adDesc,adPrice,isAdValid,dateCreated,dateEnded)>, sql_fields={\'addesc\': {\'length\': 32768, \'notnull\': True, \'sortable\': 8, \'sql\': \'LONGTEXT NOT NULL\', \'type\': \'text\', \'unique\': False}, \'adprice\': {\'length\': 512, \'notnull\': True, \'sortable\': 9, \'sql\': \'INT NOT NULL\', \'type\': \'integer\', \'unique\': False}, \'adtitle\': {\'length\': 512, \'notnull\': True, \'sortable\': 5, \'sql\': \'VARCHAR(512) NOT NULL\', \'type\': \'string\', \'unique\': False}, \'category_id\': {\'length\': 512, \'notnull\': False, \'sortable\': 3, \'sql\': \'VARCHAR(512)\', \'type\': \'string\', \'unique\': False}, \'datecreated\': {\'length\': 512, \'notnull\': True, \'sortable\': 11, \'sql\': \'DATETIME NOT NULL\', \'type\': \'datetime\', \'unique\': False}, \'dateended\': {\'length\': 512, \'notnull\': False, \'sortable\': 12, \'sql\': \'DATETIME\', \'type\': \'datetime\', \'unique\': False}, \'email\': {\'length\': 512, \'notnull\': True, \'sortable\': 6, \'sql\': \'VARCHAR(512) NOT NULL\', \'type\': \'string\', \'unique\': False}, \'id\': {\'length\': 512, \'notnull\': False, \'sortable\': 1, \'sql\': \'INT AUTO_INCREMENT NOT NULL\', \'type\': \'id\', \'unique\': False}, \'isadvalid\': {\'length\': 512, \'notnull\': False, \'sortable\': 10, \'sql\': \'INT\', \'type\': \'integer\', \'unique\': False}, \'location_vancouver_id\': {\'length\': 512, \'notnull\': False, \'sortable\': 2, \'sql\': \'VARCHAR(512)\', \'type\': \'string\', \'unique\': False}, ...}, sql_fields_old={\'addesc\': {\'length\': 32768, \'notnull\': True, \'sortable\': 8, \'sql\': \'LONGTEXT NOT NULL\', \'type\': \'text\', \'unique\': False}, \'adprice\': {\'length\': 512, \'notnull\': True, \'sortable\': 9, \'sql\': \'INT NOT NULL\', \'type\': \'integer\', \'unique\': False}, \'adtitle\': {\'length\': 512, \'notnull\': True, \'sortable\': 5, \'sql\': \'VARCHAR(512) NOT NULL\', \'type\': \'string\', \'unique\': False}, \'category_id\': {\'length\': 512, \'notnull\': False, \'sortable\': 3, \'sql\': \'VARCHAR(512)\', \'type\': \'string\', \'unique\': False}, \'datecreated\': {\'length\': 512, \'notnull\': True, \'sortable\': 11, \'sql\': \'DATETIME NOT NULL\', \'type\': \'datetime\', \'unique\': False}, \'dateended\': {\'length\': 512, \'notnull\': False, \'sortable\': 12, \'sql\': \'DATETIME\', \'type\': \'datetime\', \'unique\': False}, \'email\': {\'length\': 512, \'notnull\': True, \'sortable\': 6, \'sql\': \'VARCHAR(512) NOT NULL\', \'type\': \'string\', \'unique\': False}, \'id\': {\'length\': 512, \'notnull\': False, \'sortable\': 1, \'sql\': \'INT AUTO_INCREMENT NOT NULL\', \'type\': \'id\', \'unique\': False}, \'isadvalid\': {\'length\': 512, \'notnull\': False, \'sortable\': 10, \'sql\': \'INT\', \'type\': \'integer\', \'unique\': False}, \'location_vancouver_id\': {\'length\': 512, \'notnull\': False, \'sortable\': 2, \'sql\': \'VARCHAR(512)\', \'type\': \'string\', \'unique\': False}, ...}, sql_fields_aux={\'addesc\': {\'sql\': \'LONGTEXT NOT NULL\'}, \'adprice\': {\'sql\': \'INT NOT NULL\'}, \'adtitle\': {\'sql\': \'VARCHAR(512) NOT NULL\'}, \'category_id\': {\'sql\': \'VARCHAR(512)\'}, \'datecreated\': {\'sql\': "DATETIME NOT NULL DEFAULT \'2014-08-05 21:18:02\'"}, \'dateended\': {\'sql\': \'DATETIME\'}, \'email\': {\'sql\': \'VARCHAR(512) NOT NULL\'}, \'id\': {\'sql\': \'INT AUTO_INCREMENT NOT NULL\'}, \'isadvalid\': {\'sql\': \'INT\'}, \'location_vancouver_id\': {\'sql\': \'VARCHAR(512)\'}, ...}, logfile=None, fake_migrate=False)'
p191
sg85
S'migrate_table'
p192
sa(dp193
g62
S'/Users/sepehrtaheri/PycharmProjects/adguru/web2py/gluon/dal.py'
p194
sg64
(dp195
S'pickle.dump'
p196
S'<built-in function dump>'
p197
sS'tfile'
p198
S'<gluon.portalocker.LockedFile object>'
p199
sS'sql_fields_current'
p200
S"{'addesc': {'length': 32768, 'notnull': True, 'sortable': 8, 'sql': 'LONGTEXT NOT NULL', 'type': 'text', 'unique': False}, 'adprice': {'length': 512, 'notnull': True, 'sortable': 9, 'sql': 'INT NOT NULL', 'type': 'integer', 'unique': False}, 'adtitle': {'length': 512, 'notnull': True, 'sortable': 5, 'sql': 'VARCHAR(512) NOT NULL', 'type': 'string', 'unique': False}, 'category_id': {'length': 512, 'notnull': False, 'sortable': 3, 'sql': 'VARCHAR(512)', 'type': 'string', 'unique': False}, 'datecreated': {'length': 512, 'notnull': True, 'sortable': 11, 'sql': 'DATETIME NOT NULL', 'type': 'datetime', 'unique': False}, 'dateended': {'length': 512, 'notnull': False, 'sortable': 12, 'sql': 'DATETIME', 'type': 'datetime', 'unique': False}, 'email': {'length': 512, 'notnull': True, 'sortable': 6, 'sql': 'VARCHAR(512) NOT NULL', 'type': 'string', 'unique': False}, 'id': {'length': 512, 'notnull': False, 'sortable': 1, 'sql': 'INT AUTO_INCREMENT NOT NULL', 'type': 'id', 'unique': False}, 'isadvalid': {'length': 512, 'notnull': False, 'sortable': 10, 'sql': 'INT', 'type': 'integer', 'unique': False}, 'location_vancouver_id': {'length': 512, 'notnull': False, 'sortable': 2, 'sql': 'VARCHAR(512)', 'type': 'string', 'unique': False}, ...}"
p201
sS'global pickle'
p202
S"<module 'cPickle' from '/System/Library/Framewor...rsions/2.7/lib/python2.7/lib-dynload/cPickle.so'>"
p203
ssg70
I1266
sg71
(dp204
I1261
S'            self.save_dbt(table,sql_fields_current)'
p205
sI1262
S"            self.log('success!\\n', table)"
p206
sI1263
S''
sI1264
S'    def save_dbt(self,table, sql_fields_current):'
p207
sI1265
S"        tfile = self.file_open(table._dbt, 'w')"
p208
sI1266
S'        pickle.dump(sql_fields_current, tfile)'
p209
sI1267
S'        self.file_close(tfile)'
p210
sI1268
S''
sI1269
S'    def LOWER(self, first):'
p211
sI1270
S"        return 'LOWER(%s)' % self.expand(first)"
p212
ssg83
S"(self=<gluon.dal.MySQLAdapter object>, table=<Table vancouver (id,location_vancouver_id,categ...,adDesc,adPrice,isAdValid,dateCreated,dateEnded)>, sql_fields_current={'addesc': {'length': 32768, 'notnull': True, 'sortable': 8, 'sql': 'LONGTEXT NOT NULL', 'type': 'text', 'unique': False}, 'adprice': {'length': 512, 'notnull': True, 'sortable': 9, 'sql': 'INT NOT NULL', 'type': 'integer', 'unique': False}, 'adtitle': {'length': 512, 'notnull': True, 'sortable': 5, 'sql': 'VARCHAR(512) NOT NULL', 'type': 'string', 'unique': False}, 'category_id': {'length': 512, 'notnull': False, 'sortable': 3, 'sql': 'VARCHAR(512)', 'type': 'string', 'unique': False}, 'datecreated': {'length': 512, 'notnull': True, 'sortable': 11, 'sql': 'DATETIME NOT NULL', 'type': 'datetime', 'unique': False}, 'dateended': {'length': 512, 'notnull': False, 'sortable': 12, 'sql': 'DATETIME', 'type': 'datetime', 'unique': False}, 'email': {'length': 512, 'notnull': True, 'sortable': 6, 'sql': 'VARCHAR(512) NOT NULL', 'type': 'string', 'unique': False}, 'id': {'length': 512, 'notnull': False, 'sortable': 1, 'sql': 'INT AUTO_INCREMENT NOT NULL', 'type': 'id', 'unique': False}, 'isadvalid': {'length': 512, 'notnull': False, 'sortable': 10, 'sql': 'INT', 'type': 'integer', 'unique': False}, 'location_vancouver_id': {'length': 512, 'notnull': False, 'sortable': 2, 'sql': 'VARCHAR(512)', 'type': 'string', 'unique': False}, ...})"
p213
sg85
S'save_dbt'
p214
sa(dp215
g62
S'/System/Library/Frameworks/Python.framework/Versions/2.7/lib/python2.7/copy_reg.py'
p216
sg64
(dp217
S'base.__name__'
p218
S"'instancemethod'"
p219
sS'base'
p220
S"<type 'instancemethod'>"
p221
sS'builtinTypeError'
p222
S"<type 'exceptions.TypeError'>"
p223
ssg70
I70
sg71
(dp224
I65
S'        base = object # not really reachable'
p225
sI66
S'    if base is object:'
p226
sI67
S'        state = None'
p227
sI68
S'    else:'
p228
sI69
S'        if base is self.__class__:'
p229
sI70
S'            raise TypeError, "can\'t pickle %s objects" % base.__name__'
p230
sI71
S'        state = base(self)'
p231
sI72
S'    args = (self.__class__, base, state)'
p232
sI73
S'    try:'
p233
sI74
S'        getstate = self.__getstate__'
p234
ssg83
S'(self=<unbound method Set.delete_uploaded_files>, proto=0)'
p235
sg85
S'_reduce_ex'
p236
sasS'pyver'
p237
S'Python 2.7.5: /System/Library/Frameworks/Python.framework/Versions/2.7/Resources/Python.app/Contents/MacOS/Python (prefix: /System/Library/Frameworks/Python.framework/Versions/2.7)'
p238
sS'session'
p239
g57
(S'sc\n\x00\x00<div><table><tr><td style="font-weight:bold;vertical-align:top;">auth</td><td style="vertical-align:top;">:</td><td><div><table><tr><td style="font-weight:bold;vertical-align:top;">expiration</td><td style="vertical-align:top;">:</td><td><div>3600</div></td></tr><tr><td style="font-weight:bold;vertical-align:top;">hmac_key</td><td style="vertical-align:top;">:</td><td><div>5007c7eb-68b6-4e61-ba75-6c928f7baf48</div></td></tr><tr><td style="font-weight:bold;vertical-align:top;">last_visit</td><td style="vertical-align:top;">:</td><td><div>datetime.datetime(2014, 8, 5, 21, 17, 47, 683199)</div></td></tr><tr><td style="font-weight:bold;vertical-align:top;">remember</td><td style="vertical-align:top;">:</td><td><div>False</div></td></tr><tr><td style="font-weight:bold;vertical-align:top;">user</td><td style="vertical-align:top;">:</td><td><div><table><tr><td style="font-weight:bold;vertical-align:top;">city</td><td style="vertical-align:top;">:</td><td><div>sep</div></td></tr><tr><td style="font-weight:bold;vertical-align:top;">email</td><td style="vertical-align:top;">:</td><td><div>sep@sep.com</div></td></tr><tr><td style="font-weight:bold;vertical-align:top;">first_name</td><td style="vertical-align:top;">:</td><td><div>sep</div></td></tr><tr><td style="font-weight:bold;vertical-align:top;">id</td><td style="vertical-align:top;">:</td><td><div>1L</div></td></tr><tr><td style="font-weight:bold;vertical-align:top;">last_name</td><td style="vertical-align:top;">:</td><td><div>sep</div></td></tr><tr><td style="font-weight:bold;vertical-align:top;">phone</td><td style="vertical-align:top;">:</td><td><div>123-123-1234</div></td></tr><tr><td style="font-weight:bold;vertical-align:top;">registration_id</td><td style="vertical-align:top;">:</td><td><div></div></td></tr><tr><td style="font-weight:bold;vertical-align:top;">registration_key</td><td style="vertical-align:top;">:</td><td><div></div></td></tr><tr><td style="font-weight:bold;vertical-align:top;">reset_password_key</td><td style="vertical-align:top;">:</td><td><div></div></td></tr><tr><td style="font-weight:bold;vertical-align:top;">zip</td><td style="vertical-align:top;">:</td><td><div>sep</div></td></tr></table></div></td></tr><tr><td style="font-weight:bold;vertical-align:top;">user_groups</td><td style="vertical-align:top;">:</td><td><div><table><tr><td style="font-weight:bold;vertical-align:top;">1</td><td style="vertical-align:top;">:</td><td><div>user_1</div></td></tr></table></div></td></tr></table></div></td></tr><tr><td style="font-weight:bold;vertical-align:top;">flash</td><td style="vertical-align:top;">:</td><td><div>None</div></td></tr></table></div>'
tRp240
sS'etype'
p241
S"<type 'exceptions.TypeError'>"
p242
sS'date'
p243
S'Tue Aug  5 21:18:07 2014'
p244
sS'response'
p245
g57
(S's#\x17\x00\x00<div><table><tr><td style="font-weight:bold;vertical-align:top;">body</td><td style="vertical-align:top;">:</td><td><div>&lt;cStringIO.StringO object at 0x10e3addf8&gt;</div></td></tr><tr><td style="font-weight:bold;vertical-align:top;">cookies</td><td style="vertical-align:top;">:</td><td><div><table><tr><td style="font-weight:bold;vertical-align:top;">session_id_adguru</td><td style="vertical-align:top;">:</td><td><div>127.0.0.1-1e77cab0-fd89-40f5-b321-52aee3b396da<table><tr><td style="font-weight:bold;vertical-align:top;">comment</td><td style="vertical-align:top;">:</td><td><div></div></td></tr><tr><td style="font-weight:bold;vertical-align:top;">domain</td><td style="vertical-align:top;">:</td><td><div></div></td></tr><tr><td style="font-weight:bold;vertical-align:top;">expires</td><td style="vertical-align:top;">:</td><td><div></div></td></tr><tr><td style="font-weight:bold;vertical-align:top;">httponly</td><td style="vertical-align:top;">:</td><td><div></div></td></tr><tr><td style="font-weight:bold;vertical-align:top;">max-age</td><td style="vertical-align:top;">:</td><td><div></div></td></tr><tr><td style="font-weight:bold;vertical-align:top;">path</td><td style="vertical-align:top;">:</td><td><div>/</div></td></tr><tr><td style="font-weight:bold;vertical-align:top;">secure</td><td style="vertical-align:top;">:</td><td><div></div></td></tr><tr><td style="font-weight:bold;vertical-align:top;">version</td><td style="vertical-align:top;">:</td><td><div></div></td></tr></table></div></td></tr></table></div></td></tr><tr><td style="font-weight:bold;vertical-align:top;">delimiters</td><td style="vertical-align:top;">:</td><td><div><table><tr><td><div>{{</div></td></tr><tr><td><div>}}</div></td></tr></table></div></td></tr><tr><td style="font-weight:bold;vertical-align:top;">files</td><td style="vertical-align:top;">:</td><td><div><table></table></div></td></tr><tr><td style="font-weight:bold;vertical-align:top;">flash</td><td style="vertical-align:top;">:</td><td><div></div></td></tr><tr><td style="font-weight:bold;vertical-align:top;">generic_patterns</td><td style="vertical-align:top;">:</td><td><div><table><tr><td><div>*</div></td></tr></table></div></td></tr><tr><td style="font-weight:bold;vertical-align:top;">headers</td><td style="vertical-align:top;">:</td><td><div><table><tr><td style="font-weight:bold;vertical-align:top;">X-Powered-By</td><td style="vertical-align:top;">:</td><td><div>web2py</div></td></tr></table></div></td></tr><tr><td style="font-weight:bold;vertical-align:top;">menu</td><td style="vertical-align:top;">:</td><td><div><table></table></div></td></tr><tr><td style="font-weight:bold;vertical-align:top;">meta</td><td style="vertical-align:top;">:</td><td><div><table></table></div></td></tr><tr><td style="font-weight:bold;vertical-align:top;">models_to_run</td><td style="vertical-align:top;">:</td><td><div><table><tr><td><div>^\\w+\\.py$</div></td></tr><tr><td><div>^default/\\w+\\.py$</div></td></tr><tr><td><div>^default/index/\\w+\\.py$</div></td></tr></table></div></td></tr><tr><td style="font-weight:bold;vertical-align:top;">postprocessing</td><td style="vertical-align:top;">:</td><td><div><table></table></div></td></tr><tr><td style="font-weight:bold;vertical-align:top;">session_client</td><td style="vertical-align:top;">:</td><td><div>127.0.0.1</div></td></tr><tr><td style="font-weight:bold;vertical-align:top;">session_cookie_compression_level</td><td style="vertical-align:top;">:</td><td><div>None</div></td></tr><tr><td style="font-weight:bold;vertical-align:top;">session_cookie_expires</td><td style="vertical-align:top;">:</td><td><div>None</div></td></tr><tr><td style="font-weight:bold;vertical-align:top;">session_cookie_key</td><td style="vertical-align:top;">:</td><td><div>None</div></td></tr><tr><td style="font-weight:bold;vertical-align:top;">session_data_name</td><td style="vertical-align:top;">:</td><td><div>session_data_adguru</div></td></tr><tr><td style="font-weight:bold;vertical-align:top;">session_file</td><td style="vertical-align:top;">:</td><td><div>&lt;open file &#x27;/Users/sepehrtaheri/PycharmProjects/adguru/web2py/applications/adguru/sessions/127.0.0.1-1e77cab0-fd89-40f5-b321-52aee3b396da&#x27;, mode &#x27;rb+&#x27; at 0x10e2ccd20&gt;</div></td></tr><tr><td style="font-weight:bold;vertical-align:top;">session_filename</td><td style="vertical-align:top;">:</td><td><div>/Users/sepehrtaheri/PycharmProjects/adguru/web2py/applications/adguru/sessions/127.0.0.1-1e77cab0-fd89-40f5-b321-52aee3b396da</div></td></tr><tr><td style="font-weight:bold;vertical-align:top;">session_hash</td><td style="vertical-align:top;">:</td><td><div>9b13a6399f12e0898554dbb35e5d370e</div></td></tr><tr><td style="font-weight:bold;vertical-align:top;">session_id</td><td style="vertical-align:top;">:</td><td><div>127.0.0.1-1e77cab0-fd89-40f5-b321-52aee3b396da</div></td></tr><tr><td style="font-weight:bold;vertical-align:top;">session_id_name</td><td style="vertical-align:top;">:</td><td><div>session_id_adguru</div></td></tr><tr><td style="font-weight:bold;vertical-align:top;">session_locked</td><td style="vertical-align:top;">:</td><td><div>True</div></td></tr><tr><td style="font-weight:bold;vertical-align:top;">session_masterapp</td><td style="vertical-align:top;">:</td><td><div>adguru</div></td></tr><tr><td style="font-weight:bold;vertical-align:top;">session_new</td><td style="vertical-align:top;">:</td><td><div>False</div></td></tr><tr><td style="font-weight:bold;vertical-align:top;">session_storage_type</td><td style="vertical-align:top;">:</td><td><div>file</div></td></tr><tr><td style="font-weight:bold;vertical-align:top;">status</td><td style="vertical-align:top;">:</td><td><div>200</div></td></tr><tr><td style="font-weight:bold;vertical-align:top;">view</td><td style="vertical-align:top;">:</td><td><div>default/index.html</div></td></tr></table></div>'
tRp246
sS'locals'
p247
(dp248
S'self'
p249
S'<unbound method Set.delete_uploaded_files>'
p250
sS'base'
p251
S"<type 'instancemethod'>"
p252
sS'proto'
p253
S'0'
sssS'traceback'
p254
S'Traceback (most recent call last):\n  File "/Users/sepehrtaheri/PycharmProjects/adguru/web2py/gluon/restricted.py", line 220, in restricted\n    exec ccode in environment\n  File "/Users/sepehrtaheri/PycharmProjects/adguru/web2py/applications/adguru/models/db_vancouver.py", line 14, in <module>\n    Field(\'dateEnded\', \'datetime\'), migrate=True)\n  File "/Users/sepehrtaheri/PycharmProjects/adguru/web2py/gluon/dal.py", line 8223, in define_table\n    table = self.lazy_define_table(tablename,*fields,**args)\n  File "/Users/sepehrtaheri/PycharmProjects/adguru/web2py/gluon/dal.py", line 8260, in lazy_define_table\n    polymodel=polymodel)\n  File "/Users/sepehrtaheri/PycharmProjects/adguru/web2py/gluon/dal.py", line 1132, in create_table\n    fake_migrate=fake_migrate\n  File "/Users/sepehrtaheri/PycharmProjects/adguru/web2py/gluon/dal.py", line 1253, in migrate_table\n    self.save_dbt(table,sql_fields_current)\n  File "/Users/sepehrtaheri/PycharmProjects/adguru/web2py/gluon/dal.py", line 1266, in save_dbt\n    pickle.dump(sql_fields_current, tfile)\n  File "/System/Library/Frameworks/Python.framework/Versions/2.7/lib/python2.7/copy_reg.py", line 70, in _reduce_ex\n    raise TypeError, "can\'t pickle %s objects" % base.__name__\nTypeError: can\'t pickle instancemethod objects\n'
p255
s.