(dp1
S'output'
p2
S'<class \'gluon.contrib.pymysql.err.ProgrammingError\'> (1146, u"Table \'vancouver.auth_user\' doesn\'t exist")'
p3
sS'layer'
p4
S'/Users/sepehrtaheri/PycharmProjects/adguru/web2py/applications/adguru/models/db.py'
p5
sS'code'
p6
S"\n\n# -*- coding: utf-8 -*-\n\n#########################################################################\n## This scaffolding model makes your app work on Google App Engine too\n## File is released under public domain and you can use without limitations\n#########################################################################\n\n## if SSL/HTTPS is properly configured and you want all HTTP requests to\n## be redirected to HTTPS, uncomment the line below:\n# request.requires_https()\n\nif not request.env.web2py_runtime_gae:\n    ## if NOT running on Google App Engine use SQLite or other DB\n    db = DAL('mysql://supsep:sepehr@db4free.net:3306/vancouver')\nelse:\n    ## connect to Google BigTable (optional 'google:datastore://namespace')\n    db = DAL('google:datastore')\n    ## store sessions and tickets there\n    session.connect(request, response, db=db)\n    ## or store session in Memcache, Redis, etc.\n    ## from gluon.contrib.memdb import MEMDB\n    ## from google.appengine.api.memcache import Client\n    ## session.connect(request, response, db = MEMDB(Client()))\n\n## by default give a view/generic.extension to all actions from localhost\n## none otherwise. a pattern can be 'controller/function.extension'\nresponse.generic_patterns = ['*'] if request.is_local else []\n## (optional) optimize handling of static files\n# response.optimize_css = 'concat,minify,inline'\n# response.optimize_js = 'concat,minify,inline'\n## (optional) static assets folder versioning\n# response.static_version = '0.0.0'\n#########################################################################\n## Here is sample code if you need for\n## - email capabilities\n## - authentication (registration, login, logout, ... )\n## - authorization (role based authorization)\n## - services (xml, csv, json, xmlrpc, jsonrpc, amf, rss)\n## - old style crud actions\n## (more options discussed in gluon/tools.py)\n#########################################################################\n\nfrom gluon.tools import Auth, Crud, Service, PluginManager, prettydate\nauth = Auth(db)\ncrud, service, plugins = Crud(db), Service(), PluginManager()\n\n\nauth.settings.extra_fields['auth_user']= [\n  Field('city'),\n  Field('zip'),\n  Field('phone')]\n\n## create all tables needed by auth if not custom tables\nauth.define_tables(username=False, signature=False)\n\n## configure email\n#mail = auth.settings.mailer\n#mail.settings.server = 'logging' or 'smtp.gmail.com:587'\n#mail.settings.sender = 'you@gmail.com'\n#mail.settings.login = 'username:password'\n\n## configure auth policy\n#auth.settings.registration_requires_verification = False\n#auth.settings.registration_requires_approval = False\n#auth.settings.reset_password_requires_verification = True\n\n#auth.settings.registration_requires_verification = True\n#auth.settings.registration_requires_approval = False\n#auth.settings.reset_password_requires_verification = True\n#auth.messages.verify_email = 'Click on the link http://' +     request.env.http_host +     URL(r=request,c='default',f='user',args=['verify_email']) +     '/%(key)s to verify your email'\n#auth.messages.reset_password = 'Click on the link http://' +     request.env.http_host +     URL(r=request,c='default',f='user',args=['reset_password']) +     '/%(key)s to reset your password'\n\n## if you need to use OpenID, Facebook, MySpace, Twitter, Linkedin, etc.\n## register with janrain.com, write your domain:api_key in private/janrain.key\nfrom gluon.contrib.login_methods.rpx_account import use_janrain\nuse_janrain(auth, filename='private/janrain.key')\n\n#########################################################################\n## Define your tables below (or better in another model file) for example\n##\n## >>> db.define_table('mytable',Field('myfield','string'))\n##\n## Fields can be 'string','text','password','integer','double','boolean'\n##       'date','time','datetime','blob','upload', 'reference TABLENAME'\n## There is an implicit 'id integer autoincrement' field\n## Consult manual for more options, validators, etc.\n##\n## More API examples for controllers:\n##\n## >>> db.mytable.insert(myfield='value')\n## >>> rows=db(db.mytable.myfield=='value').select(db.mytable.ALL)\n## >>> for row in rows: print row.id, row.myfield\n#########################################################################\n\n## after defining tables, uncomment below to enable auditing\n# auth.enable_record_versioning(db)\n"
p7
sS'snapshot'
p8
(dp9
sS'traceback'
p10
S'Traceback (most recent call last):\n  File "/Users/sepehrtaheri/PycharmProjects/adguru/web2py/gluon/restricted.py", line 220, in restricted\n    exec ccode in environment\n  File "/Users/sepehrtaheri/PycharmProjects/adguru/web2py/applications/adguru/models/db.py", line 56, in <module>\n    auth.define_tables(username=False, signature=False)\n  File "/Users/sepehrtaheri/PycharmProjects/adguru/web2py/gluon/tools.py", line 1784, in define_tables\n    format=\'%(first_name)s %(last_name)s (%(id)s)\'))\n  File "/Users/sepehrtaheri/PycharmProjects/adguru/web2py/gluon/dal.py", line 8223, in define_table\n    table = self.lazy_define_table(tablename,*fields,**args)\n  File "/Users/sepehrtaheri/PycharmProjects/adguru/web2py/gluon/dal.py", line 8260, in lazy_define_table\n    polymodel=polymodel)\n  File "/Users/sepehrtaheri/PycharmProjects/adguru/web2py/gluon/dal.py", line 1132, in create_table\n    fake_migrate=fake_migrate\n  File "/Users/sepehrtaheri/PycharmProjects/adguru/web2py/gluon/dal.py", line 1245, in migrate_table\n    self.execute(sub_query)\n  File "/Users/sepehrtaheri/PycharmProjects/adguru/web2py/gluon/dal.py", line 1969, in execute\n    return self.log_execute(*a, **b)\n  File "/Users/sepehrtaheri/PycharmProjects/adguru/web2py/gluon/dal.py", line 1963, in log_execute\n    ret = self.cursor.execute(command, *a[1:], **b)\n  File "/Users/sepehrtaheri/PycharmProjects/adguru/web2py/gluon/contrib/pymysql/cursors.py", line 117, in execute\n    self.errorhandler(self, exc, value)\n  File "/Users/sepehrtaheri/PycharmProjects/adguru/web2py/gluon/contrib/pymysql/connections.py", line 202, in defaulterrorhandler\n    raise errorclass, errorvalue\nProgrammingError: (1146, u"Table \'vancouver.auth_user\' doesn\'t exist")\n'
p11
s.